
simple_oop.elf:     file format elf32-littlearm

Sections:
Idx Name          Size      VMA       LMA       File off  Algn
  0 .isr_vector   0000010c  08000000  08000000  00010000  2**0
                  CONTENTS, ALLOC, LOAD, READONLY, DATA
  1 .text         00002ddc  08000110  08000110  00010110  2**4
                  CONTENTS, ALLOC, LOAD, READONLY, CODE
  2 .rodata       000000d0  08002eec  08002eec  00012eec  2**2
                  CONTENTS, ALLOC, LOAD, READONLY, DATA
  3 .ARM.extab    00000000  08002fbc  08002fbc  00020074  2**0
                  CONTENTS
  4 .ARM          00000000  08002fbc  08002fbc  00020074  2**0
                  CONTENTS
  5 .preinit_array 00000000  08002fbc  08002fbc  00020074  2**0
                  CONTENTS, ALLOC, LOAD, DATA
  6 .init_array   00000008  08002fbc  08002fbc  00012fbc  2**2
                  CONTENTS, ALLOC, LOAD, DATA
  7 .fini_array   00000004  08002fc4  08002fc4  00012fc4  2**2
                  CONTENTS, ALLOC, LOAD, DATA
  8 .data         00000074  20000000  08002fc8  00020000  2**2
                  CONTENTS, ALLOC, LOAD, DATA
  9 .bss          00001ad0  20000074  0800303c  00020074  2**2
                  ALLOC
 10 ._user_heap_stack 00000604  20001b44  0800303c  00021b44  2**0
                  ALLOC
 11 .ARM.attributes 00000029  00000000  00000000  00020074  2**0
                  CONTENTS, READONLY
 12 .comment      00000050  00000000  00000000  0002009d  2**0
                  CONTENTS, READONLY
 13 .debug_frame  00000584  00000000  00000000  000200f0  2**2
                  CONTENTS, READONLY, DEBUGGING, OCTETS

Disassembly of section .text:

08000110 <__do_global_dtors_aux>:
 8000110:	b510      	push	{r4, lr}
 8000112:	4c05      	ldr	r4, [pc, #20]	; (8000128 <__do_global_dtors_aux+0x18>)
 8000114:	7823      	ldrb	r3, [r4, #0]
 8000116:	b933      	cbnz	r3, 8000126 <__do_global_dtors_aux+0x16>
 8000118:	4b04      	ldr	r3, [pc, #16]	; (800012c <__do_global_dtors_aux+0x1c>)
 800011a:	b113      	cbz	r3, 8000122 <__do_global_dtors_aux+0x12>
 800011c:	4804      	ldr	r0, [pc, #16]	; (8000130 <__do_global_dtors_aux+0x20>)
 800011e:	f3af 8000 	nop.w
 8000122:	2301      	movs	r3, #1
 8000124:	7023      	strb	r3, [r4, #0]
 8000126:	bd10      	pop	{r4, pc}
 8000128:	20000074 	.word	0x20000074
 800012c:	00000000 	.word	0x00000000
 8000130:	08002ed4 	.word	0x08002ed4

08000134 <frame_dummy>:
 8000134:	b508      	push	{r3, lr}
 8000136:	4b03      	ldr	r3, [pc, #12]	; (8000144 <frame_dummy+0x10>)
 8000138:	b11b      	cbz	r3, 8000142 <frame_dummy+0xe>
 800013a:	4903      	ldr	r1, [pc, #12]	; (8000148 <frame_dummy+0x14>)
 800013c:	4803      	ldr	r0, [pc, #12]	; (800014c <frame_dummy+0x18>)
 800013e:	f3af 8000 	nop.w
 8000142:	bd08      	pop	{r3, pc}
 8000144:	00000000 	.word	0x00000000
 8000148:	20000078 	.word	0x20000078
 800014c:	08002ed4 	.word	0x08002ed4

08000150 <_ZN3Car11startEngineEv>:
 8000150:	2000      	movs	r0, #0
 8000152:	4770      	bx	lr

08000154 <_Z13StartMainTaskPv>:
 8000154:	b573      	push	{r0, r1, r4, r5, r6, lr}
 8000156:	4e0d      	ldr	r6, [pc, #52]	; (800018c <_Z13StartMainTaskPv+0x38>)
 8000158:	4c0d      	ldr	r4, [pc, #52]	; (8000190 <_Z13StartMainTaskPv+0x3c>)
 800015a:	4d0e      	ldr	r5, [pc, #56]	; (8000194 <_Z13StartMainTaskPv+0x40>)
 800015c:	6830      	ldr	r0, [r6, #0]
 800015e:	f7ff fff7 	bl	8000150 <_ZN3Car11startEngineEv>
 8000162:	6820      	ldr	r0, [r4, #0]
 8000164:	88a2      	ldrh	r2, [r4, #4]
 8000166:	79a3      	ldrb	r3, [r4, #6]
 8000168:	9000      	str	r0, [sp, #0]
 800016a:	f8ad 2004 	strh.w	r2, [sp, #4]
 800016e:	f88d 3006 	strb.w	r3, [sp, #6]
 8000172:	2207      	movs	r2, #7
 8000174:	f44f 73fa 	mov.w	r3, #500	; 0x1f4
 8000178:	4669      	mov	r1, sp
 800017a:	4628      	mov	r0, r5
 800017c:	f000 ff52 	bl	8001024 <HAL_UART_Transmit>
 8000180:	f44f 707a 	mov.w	r0, #1000	; 0x3e8
 8000184:	f001 f83c 	bl	8001200 <osDelay>
 8000188:	e7e8      	b.n	800015c <_Z13StartMainTaskPv+0x8>
 800018a:	bf00      	nop
 800018c:	200000d8 	.word	0x200000d8
 8000190:	08002eec 	.word	0x08002eec
 8000194:	20000090 	.word	0x20000090

08000198 <_Z18SystemClock_Configv>:
 8000198:	b500      	push	{lr}
 800019a:	b091      	sub	sp, #68	; 0x44
 800019c:	2224      	movs	r2, #36	; 0x24
 800019e:	2100      	movs	r1, #0
 80001a0:	a807      	add	r0, sp, #28
 80001a2:	f002 fce9 	bl	8002b78 <memset>
 80001a6:	2214      	movs	r2, #20
 80001a8:	2100      	movs	r1, #0
 80001aa:	a801      	add	r0, sp, #4
 80001ac:	f002 fce4 	bl	8002b78 <memset>
 80001b0:	2302      	movs	r3, #2
 80001b2:	2101      	movs	r1, #1
 80001b4:	9306      	str	r3, [sp, #24]
 80001b6:	2310      	movs	r3, #16
 80001b8:	a806      	add	r0, sp, #24
 80001ba:	e9cd 130a 	strd	r1, r3, [sp, #40]	; 0x28
 80001be:	f000 fac3 	bl	8000748 <HAL_RCC_OscConfig>
 80001c2:	4601      	mov	r1, r0
 80001c4:	b108      	cbz	r0, 80001ca <_Z18SystemClock_Configv+0x32>
 80001c6:	b672      	cpsid	i
 80001c8:	e7fe      	b.n	80001c8 <_Z18SystemClock_Configv+0x30>
 80001ca:	230f      	movs	r3, #15
 80001cc:	e9cd 0003 	strd	r0, r0, [sp, #12]
 80001d0:	e9cd 3001 	strd	r3, r0, [sp, #4]
 80001d4:	9005      	str	r0, [sp, #20]
 80001d6:	a801      	add	r0, sp, #4
 80001d8:	f000 fc8c 	bl	8000af4 <HAL_RCC_ClockConfig>
 80001dc:	b108      	cbz	r0, 80001e2 <_Z18SystemClock_Configv+0x4a>
 80001de:	b672      	cpsid	i
 80001e0:	e7fe      	b.n	80001e0 <_Z18SystemClock_Configv+0x48>
 80001e2:	b011      	add	sp, #68	; 0x44
 80001e4:	f85d fb04 	ldr.w	pc, [sp], #4

080001e8 <main>:
 80001e8:	b507      	push	{r0, r1, r2, lr}
 80001ea:	f000 f961 	bl	80004b0 <HAL_Init>
 80001ee:	f7ff ffd3 	bl	8000198 <_Z18SystemClock_Configv>
 80001f2:	4b15      	ldr	r3, [pc, #84]	; (8000248 <main+0x60>)
 80001f4:	4815      	ldr	r0, [pc, #84]	; (800024c <main+0x64>)
 80001f6:	699a      	ldr	r2, [r3, #24]
 80001f8:	f042 0204 	orr.w	r2, r2, #4
 80001fc:	619a      	str	r2, [r3, #24]
 80001fe:	699b      	ldr	r3, [r3, #24]
 8000200:	4a13      	ldr	r2, [pc, #76]	; (8000250 <main+0x68>)
 8000202:	f003 0304 	and.w	r3, r3, #4
 8000206:	9301      	str	r3, [sp, #4]
 8000208:	9b01      	ldr	r3, [sp, #4]
 800020a:	f44f 33e1 	mov.w	r3, #115200	; 0x1c200
 800020e:	e9c0 2300 	strd	r2, r3, [r0]
 8000212:	2300      	movs	r3, #0
 8000214:	220c      	movs	r2, #12
 8000216:	e9c0 3302 	strd	r3, r3, [r0, #8]
 800021a:	e9c0 2305 	strd	r2, r3, [r0, #20]
 800021e:	6103      	str	r3, [r0, #16]
 8000220:	61c3      	str	r3, [r0, #28]
 8000222:	f000 fed1 	bl	8000fc8 <HAL_UART_Init>
 8000226:	4604      	mov	r4, r0
 8000228:	b108      	cbz	r0, 800022e <main+0x46>
 800022a:	b672      	cpsid	i
 800022c:	e7fe      	b.n	800022c <main+0x44>
 800022e:	f000 ff4f 	bl	80010d0 <osKernelInitialize>
 8000232:	4621      	mov	r1, r4
 8000234:	4a07      	ldr	r2, [pc, #28]	; (8000254 <main+0x6c>)
 8000236:	4808      	ldr	r0, [pc, #32]	; (8000258 <main+0x70>)
 8000238:	f000 ff86 	bl	8001148 <osThreadNew>
 800023c:	4b07      	ldr	r3, [pc, #28]	; (800025c <main+0x74>)
 800023e:	6018      	str	r0, [r3, #0]
 8000240:	f000 ff62 	bl	8001108 <osKernelStart>
 8000244:	e7fe      	b.n	8000244 <main+0x5c>
 8000246:	bf00      	nop
 8000248:	40021000 	.word	0x40021000
 800024c:	20000090 	.word	0x20000090
 8000250:	40013800 	.word	0x40013800
 8000254:	08002efc 	.word	0x08002efc
 8000258:	08000155 	.word	0x08000155
 800025c:	200000d4 	.word	0x200000d4

08000260 <HAL_TIM_PeriodElapsedCallback>:
 8000260:	6802      	ldr	r2, [r0, #0]
 8000262:	4b03      	ldr	r3, [pc, #12]	; (8000270 <HAL_TIM_PeriodElapsedCallback+0x10>)
 8000264:	429a      	cmp	r2, r3
 8000266:	d101      	bne.n	800026c <HAL_TIM_PeriodElapsedCallback+0xc>
 8000268:	f000 b934 	b.w	80004d4 <HAL_IncTick>
 800026c:	4770      	bx	lr
 800026e:	bf00      	nop
 8000270:	40012c00 	.word	0x40012c00

08000274 <_GLOBAL__sub_I_huart1>:
 8000274:	b510      	push	{r4, lr}
 8000276:	203c      	movs	r0, #60	; 0x3c
 8000278:	f002 fc1a 	bl	8002ab0 <_Znwj>
 800027c:	4604      	mov	r4, r0
 800027e:	223c      	movs	r2, #60	; 0x3c
 8000280:	2100      	movs	r1, #0
 8000282:	f002 fc79 	bl	8002b78 <memset>
 8000286:	f104 0308 	add.w	r3, r4, #8
 800028a:	6023      	str	r3, [r4, #0]
 800028c:	2300      	movs	r3, #0
 800028e:	7223      	strb	r3, [r4, #8]
 8000290:	f884 3020 	strb.w	r3, [r4, #32]
 8000294:	4b02      	ldr	r3, [pc, #8]	; (80002a0 <_GLOBAL__sub_I_huart1+0x2c>)
 8000296:	f104 0220 	add.w	r2, r4, #32
 800029a:	61a2      	str	r2, [r4, #24]
 800029c:	601c      	str	r4, [r3, #0]
 800029e:	bd10      	pop	{r4, pc}
 80002a0:	200000d8 	.word	0x200000d8

080002a4 <HAL_MspInit>:
 80002a4:	4b0d      	ldr	r3, [pc, #52]	; (80002dc <HAL_MspInit+0x38>)
 80002a6:	b082      	sub	sp, #8
 80002a8:	699a      	ldr	r2, [r3, #24]
 80002aa:	210f      	movs	r1, #15
 80002ac:	f042 0201 	orr.w	r2, r2, #1
 80002b0:	619a      	str	r2, [r3, #24]
 80002b2:	699a      	ldr	r2, [r3, #24]
 80002b4:	f06f 0001 	mvn.w	r0, #1
 80002b8:	f002 0201 	and.w	r2, r2, #1
 80002bc:	9200      	str	r2, [sp, #0]
 80002be:	9a00      	ldr	r2, [sp, #0]
 80002c0:	69da      	ldr	r2, [r3, #28]
 80002c2:	f042 5280 	orr.w	r2, r2, #268435456	; 0x10000000
 80002c6:	61da      	str	r2, [r3, #28]
 80002c8:	2200      	movs	r2, #0
 80002ca:	69db      	ldr	r3, [r3, #28]
 80002cc:	f003 5380 	and.w	r3, r3, #268435456	; 0x10000000
 80002d0:	9301      	str	r3, [sp, #4]
 80002d2:	9b01      	ldr	r3, [sp, #4]
 80002d4:	b002      	add	sp, #8
 80002d6:	f000 b921 	b.w	800051c <HAL_NVIC_SetPriority>
 80002da:	bf00      	nop
 80002dc:	40021000 	.word	0x40021000

080002e0 <HAL_UART_MspInit>:
 80002e0:	b510      	push	{r4, lr}
 80002e2:	4604      	mov	r4, r0
 80002e4:	b086      	sub	sp, #24
 80002e6:	2210      	movs	r2, #16
 80002e8:	2100      	movs	r1, #0
 80002ea:	a802      	add	r0, sp, #8
 80002ec:	f002 fc44 	bl	8002b78 <memset>
 80002f0:	6822      	ldr	r2, [r4, #0]
 80002f2:	4b17      	ldr	r3, [pc, #92]	; (8000350 <HAL_UART_MspInit+0x70>)
 80002f4:	429a      	cmp	r2, r3
 80002f6:	d128      	bne.n	800034a <HAL_UART_MspInit+0x6a>
 80002f8:	f503 4358 	add.w	r3, r3, #55296	; 0xd800
 80002fc:	699a      	ldr	r2, [r3, #24]
 80002fe:	4815      	ldr	r0, [pc, #84]	; (8000354 <HAL_UART_MspInit+0x74>)
 8000300:	f442 4280 	orr.w	r2, r2, #16384	; 0x4000
 8000304:	619a      	str	r2, [r3, #24]
 8000306:	699a      	ldr	r2, [r3, #24]
 8000308:	a902      	add	r1, sp, #8
 800030a:	f402 4280 	and.w	r2, r2, #16384	; 0x4000
 800030e:	9200      	str	r2, [sp, #0]
 8000310:	9a00      	ldr	r2, [sp, #0]
 8000312:	699a      	ldr	r2, [r3, #24]
 8000314:	f042 0204 	orr.w	r2, r2, #4
 8000318:	619a      	str	r2, [r3, #24]
 800031a:	699b      	ldr	r3, [r3, #24]
 800031c:	f44f 7200 	mov.w	r2, #512	; 0x200
 8000320:	f003 0304 	and.w	r3, r3, #4
 8000324:	9301      	str	r3, [sp, #4]
 8000326:	9b01      	ldr	r3, [sp, #4]
 8000328:	2302      	movs	r3, #2
 800032a:	e9cd 2302 	strd	r2, r3, [sp, #8]
 800032e:	2303      	movs	r3, #3
 8000330:	9305      	str	r3, [sp, #20]
 8000332:	f000 f933 	bl	800059c <HAL_GPIO_Init>
 8000336:	f44f 6180 	mov.w	r1, #1024	; 0x400
 800033a:	2300      	movs	r3, #0
 800033c:	4805      	ldr	r0, [pc, #20]	; (8000354 <HAL_UART_MspInit+0x74>)
 800033e:	e9cd 1302 	strd	r1, r3, [sp, #8]
 8000342:	a902      	add	r1, sp, #8
 8000344:	9304      	str	r3, [sp, #16]
 8000346:	f000 f929 	bl	800059c <HAL_GPIO_Init>
 800034a:	b006      	add	sp, #24
 800034c:	bd10      	pop	{r4, pc}
 800034e:	bf00      	nop
 8000350:	40013800 	.word	0x40013800
 8000354:	40010800 	.word	0x40010800

08000358 <HAL_InitTick>:
 8000358:	4b1e      	ldr	r3, [pc, #120]	; (80003d4 <HAL_InitTick+0x7c>)
 800035a:	b570      	push	{r4, r5, r6, lr}
 800035c:	699a      	ldr	r2, [r3, #24]
 800035e:	b088      	sub	sp, #32
 8000360:	f442 6200 	orr.w	r2, r2, #2048	; 0x800
 8000364:	619a      	str	r2, [r3, #24]
 8000366:	699b      	ldr	r3, [r3, #24]
 8000368:	a901      	add	r1, sp, #4
 800036a:	f403 6300 	and.w	r3, r3, #2048	; 0x800
 800036e:	9302      	str	r3, [sp, #8]
 8000370:	4606      	mov	r6, r0
 8000372:	a803      	add	r0, sp, #12
 8000374:	4d18      	ldr	r5, [pc, #96]	; (80003d8 <HAL_InitTick+0x80>)
 8000376:	9b02      	ldr	r3, [sp, #8]
 8000378:	f000 fc78 	bl	8000c6c <HAL_RCC_GetClockConfig>
 800037c:	f000 fc66 	bl	8000c4c <HAL_RCC_GetPCLK2Freq>
 8000380:	4b16      	ldr	r3, [pc, #88]	; (80003dc <HAL_InitTick+0x84>)
 8000382:	602b      	str	r3, [r5, #0]
 8000384:	f240 33e7 	movw	r3, #999	; 0x3e7
 8000388:	60eb      	str	r3, [r5, #12]
 800038a:	4b15      	ldr	r3, [pc, #84]	; (80003e0 <HAL_InitTick+0x88>)
 800038c:	fbb0 f0f3 	udiv	r0, r0, r3
 8000390:	2300      	movs	r3, #0
 8000392:	3801      	subs	r0, #1
 8000394:	6068      	str	r0, [r5, #4]
 8000396:	4628      	mov	r0, r5
 8000398:	612b      	str	r3, [r5, #16]
 800039a:	60ab      	str	r3, [r5, #8]
 800039c:	61ab      	str	r3, [r5, #24]
 800039e:	f000 fd83 	bl	8000ea8 <HAL_TIM_Base_Init>
 80003a2:	4604      	mov	r4, r0
 80003a4:	b980      	cbnz	r0, 80003c8 <HAL_InitTick+0x70>
 80003a6:	4628      	mov	r0, r5
 80003a8:	f000 fc80 	bl	8000cac <HAL_TIM_Base_Start_IT>
 80003ac:	4604      	mov	r4, r0
 80003ae:	b958      	cbnz	r0, 80003c8 <HAL_InitTick+0x70>
 80003b0:	2019      	movs	r0, #25
 80003b2:	f000 f8e5 	bl	8000580 <HAL_NVIC_EnableIRQ>
 80003b6:	2e0f      	cmp	r6, #15
 80003b8:	d809      	bhi.n	80003ce <HAL_InitTick+0x76>
 80003ba:	4622      	mov	r2, r4
 80003bc:	4631      	mov	r1, r6
 80003be:	2019      	movs	r0, #25
 80003c0:	f000 f8ac 	bl	800051c <HAL_NVIC_SetPriority>
 80003c4:	4b07      	ldr	r3, [pc, #28]	; (80003e4 <HAL_InitTick+0x8c>)
 80003c6:	601e      	str	r6, [r3, #0]
 80003c8:	4620      	mov	r0, r4
 80003ca:	b008      	add	sp, #32
 80003cc:	bd70      	pop	{r4, r5, r6, pc}
 80003ce:	2401      	movs	r4, #1
 80003d0:	e7fa      	b.n	80003c8 <HAL_InitTick+0x70>
 80003d2:	bf00      	nop
 80003d4:	40021000 	.word	0x40021000
 80003d8:	200000dc 	.word	0x200000dc
 80003dc:	40012c00 	.word	0x40012c00
 80003e0:	000f4240 	.word	0x000f4240
 80003e4:	20000008 	.word	0x20000008

080003e8 <NMI_Handler>:
 80003e8:	e7fe      	b.n	80003e8 <NMI_Handler>

080003ea <HardFault_Handler>:
 80003ea:	e7fe      	b.n	80003ea <HardFault_Handler>

080003ec <MemManage_Handler>:
 80003ec:	e7fe      	b.n	80003ec <MemManage_Handler>

080003ee <BusFault_Handler>:
 80003ee:	e7fe      	b.n	80003ee <BusFault_Handler>

080003f0 <UsageFault_Handler>:
 80003f0:	e7fe      	b.n	80003f0 <UsageFault_Handler>

080003f2 <DebugMon_Handler>:
 80003f2:	4770      	bx	lr

080003f4 <TIM1_UP_IRQHandler>:
 80003f4:	4801      	ldr	r0, [pc, #4]	; (80003fc <TIM1_UP_IRQHandler+0x8>)
 80003f6:	f000 bc83 	b.w	8000d00 <HAL_TIM_IRQHandler>
 80003fa:	bf00      	nop
 80003fc:	200000dc 	.word	0x200000dc

08000400 <_getpid>:
 8000400:	2001      	movs	r0, #1
 8000402:	4770      	bx	lr

08000404 <_kill>:
 8000404:	b508      	push	{r3, lr}
 8000406:	f002 fb75 	bl	8002af4 <__errno>
 800040a:	2316      	movs	r3, #22
 800040c:	6003      	str	r3, [r0, #0]
 800040e:	f04f 30ff 	mov.w	r0, #4294967295
 8000412:	bd08      	pop	{r3, pc}

08000414 <_exit>:
 8000414:	b508      	push	{r3, lr}
 8000416:	f002 fb6d 	bl	8002af4 <__errno>
 800041a:	2316      	movs	r3, #22
 800041c:	6003      	str	r3, [r0, #0]
 800041e:	e7fe      	b.n	800041e <_exit+0xa>

08000420 <_sbrk>:
 8000420:	4a0b      	ldr	r2, [pc, #44]	; (8000450 <_sbrk+0x30>)
 8000422:	4603      	mov	r3, r0
 8000424:	6811      	ldr	r1, [r2, #0]
 8000426:	b510      	push	{r4, lr}
 8000428:	b909      	cbnz	r1, 800042e <_sbrk+0xe>
 800042a:	490a      	ldr	r1, [pc, #40]	; (8000454 <_sbrk+0x34>)
 800042c:	6011      	str	r1, [r2, #0]
 800042e:	6810      	ldr	r0, [r2, #0]
 8000430:	4909      	ldr	r1, [pc, #36]	; (8000458 <_sbrk+0x38>)
 8000432:	4c0a      	ldr	r4, [pc, #40]	; (800045c <_sbrk+0x3c>)
 8000434:	4403      	add	r3, r0
 8000436:	1b09      	subs	r1, r1, r4
 8000438:	428b      	cmp	r3, r1
 800043a:	d906      	bls.n	800044a <_sbrk+0x2a>
 800043c:	f002 fb5a 	bl	8002af4 <__errno>
 8000440:	230c      	movs	r3, #12
 8000442:	6003      	str	r3, [r0, #0]
 8000444:	f04f 30ff 	mov.w	r0, #4294967295
 8000448:	bd10      	pop	{r4, pc}
 800044a:	6013      	str	r3, [r2, #0]
 800044c:	e7fc      	b.n	8000448 <_sbrk+0x28>
 800044e:	bf00      	nop
 8000450:	20000124 	.word	0x20000124
 8000454:	20001b48 	.word	0x20001b48
 8000458:	20002800 	.word	0x20002800
 800045c:	00000400 	.word	0x00000400

08000460 <SystemInit>:
 8000460:	4770      	bx	lr
	...

08000464 <Reset_Handler>:
 8000464:	480c      	ldr	r0, [pc, #48]	; (8000498 <LoopFillZerobss+0x12>)
 8000466:	490d      	ldr	r1, [pc, #52]	; (800049c <LoopFillZerobss+0x16>)
 8000468:	4a0d      	ldr	r2, [pc, #52]	; (80004a0 <LoopFillZerobss+0x1a>)
 800046a:	2300      	movs	r3, #0
 800046c:	e002      	b.n	8000474 <LoopCopyDataInit>

0800046e <CopyDataInit>:
 800046e:	58d4      	ldr	r4, [r2, r3]
 8000470:	50c4      	str	r4, [r0, r3]
 8000472:	3304      	adds	r3, #4

08000474 <LoopCopyDataInit>:
 8000474:	18c4      	adds	r4, r0, r3
 8000476:	428c      	cmp	r4, r1
 8000478:	d3f9      	bcc.n	800046e <CopyDataInit>
 800047a:	4a0a      	ldr	r2, [pc, #40]	; (80004a4 <LoopFillZerobss+0x1e>)
 800047c:	4c0a      	ldr	r4, [pc, #40]	; (80004a8 <LoopFillZerobss+0x22>)
 800047e:	2300      	movs	r3, #0
 8000480:	e001      	b.n	8000486 <LoopFillZerobss>

08000482 <FillZerobss>:
 8000482:	6013      	str	r3, [r2, #0]
 8000484:	3204      	adds	r2, #4

08000486 <LoopFillZerobss>:
 8000486:	42a2      	cmp	r2, r4
 8000488:	d3fb      	bcc.n	8000482 <FillZerobss>
 800048a:	f7ff ffe9 	bl	8000460 <SystemInit>
 800048e:	f002 fb37 	bl	8002b00 <__libc_init_array>
 8000492:	f7ff fea9 	bl	80001e8 <main>
 8000496:	4770      	bx	lr
 8000498:	20000000 	.word	0x20000000
 800049c:	20000074 	.word	0x20000074
 80004a0:	08002fc8 	.word	0x08002fc8
 80004a4:	20000074 	.word	0x20000074
 80004a8:	20001b44 	.word	0x20001b44

080004ac <ADC1_2_IRQHandler>:
 80004ac:	e7fe      	b.n	80004ac <ADC1_2_IRQHandler>
	...

080004b0 <HAL_Init>:
 80004b0:	4a07      	ldr	r2, [pc, #28]	; (80004d0 <HAL_Init+0x20>)
 80004b2:	b508      	push	{r3, lr}
 80004b4:	6813      	ldr	r3, [r2, #0]
 80004b6:	2003      	movs	r0, #3
 80004b8:	f043 0310 	orr.w	r3, r3, #16
 80004bc:	6013      	str	r3, [r2, #0]
 80004be:	f000 f81b 	bl	80004f8 <HAL_NVIC_SetPriorityGrouping>
 80004c2:	200f      	movs	r0, #15
 80004c4:	f7ff ff48 	bl	8000358 <HAL_InitTick>
 80004c8:	f7ff feec 	bl	80002a4 <HAL_MspInit>
 80004cc:	2000      	movs	r0, #0
 80004ce:	bd08      	pop	{r3, pc}
 80004d0:	40022000 	.word	0x40022000

080004d4 <HAL_IncTick>:
 80004d4:	4a03      	ldr	r2, [pc, #12]	; (80004e4 <HAL_IncTick+0x10>)
 80004d6:	4b04      	ldr	r3, [pc, #16]	; (80004e8 <HAL_IncTick+0x14>)
 80004d8:	6811      	ldr	r1, [r2, #0]
 80004da:	781b      	ldrb	r3, [r3, #0]
 80004dc:	440b      	add	r3, r1
 80004de:	6013      	str	r3, [r2, #0]
 80004e0:	4770      	bx	lr
 80004e2:	bf00      	nop
 80004e4:	20000128 	.word	0x20000128
 80004e8:	20000004 	.word	0x20000004

080004ec <HAL_GetTick>:
 80004ec:	4b01      	ldr	r3, [pc, #4]	; (80004f4 <HAL_GetTick+0x8>)
 80004ee:	6818      	ldr	r0, [r3, #0]
 80004f0:	4770      	bx	lr
 80004f2:	bf00      	nop
 80004f4:	20000128 	.word	0x20000128

080004f8 <HAL_NVIC_SetPriorityGrouping>:
 80004f8:	4907      	ldr	r1, [pc, #28]	; (8000518 <HAL_NVIC_SetPriorityGrouping+0x20>)
 80004fa:	0203      	lsls	r3, r0, #8
 80004fc:	68ca      	ldr	r2, [r1, #12]
 80004fe:	f403 63e0 	and.w	r3, r3, #1792	; 0x700
 8000502:	f422 62e0 	bic.w	r2, r2, #1792	; 0x700
 8000506:	0412      	lsls	r2, r2, #16
 8000508:	0c12      	lsrs	r2, r2, #16
 800050a:	4313      	orrs	r3, r2
 800050c:	f043 63bf 	orr.w	r3, r3, #100139008	; 0x5f80000
 8000510:	f443 3300 	orr.w	r3, r3, #131072	; 0x20000
 8000514:	60cb      	str	r3, [r1, #12]
 8000516:	4770      	bx	lr
 8000518:	e000ed00 	.word	0xe000ed00

0800051c <HAL_NVIC_SetPriority>:
 800051c:	4b16      	ldr	r3, [pc, #88]	; (8000578 <HAL_NVIC_SetPriority+0x5c>)
 800051e:	b530      	push	{r4, r5, lr}
 8000520:	68dc      	ldr	r4, [r3, #12]
 8000522:	f3c4 2402 	ubfx	r4, r4, #8, #3
 8000526:	f1c4 0307 	rsb	r3, r4, #7
 800052a:	1d25      	adds	r5, r4, #4
 800052c:	2b04      	cmp	r3, #4
 800052e:	bf28      	it	cs
 8000530:	2304      	movcs	r3, #4
 8000532:	2d06      	cmp	r5, #6
 8000534:	f04f 35ff 	mov.w	r5, #4294967295
 8000538:	bf98      	it	ls
 800053a:	2400      	movls	r4, #0
 800053c:	fa05 f303 	lsl.w	r3, r5, r3
 8000540:	bf88      	it	hi
 8000542:	3c03      	subhi	r4, #3
 8000544:	ea21 0303 	bic.w	r3, r1, r3
 8000548:	40a3      	lsls	r3, r4
 800054a:	fa05 f404 	lsl.w	r4, r5, r4
 800054e:	ea22 0204 	bic.w	r2, r2, r4
 8000552:	2800      	cmp	r0, #0
 8000554:	ea43 0302 	orr.w	r3, r3, r2
 8000558:	bfac      	ite	ge
 800055a:	f100 4060 	addge.w	r0, r0, #3758096384	; 0xe0000000
 800055e:	4a07      	ldrlt	r2, [pc, #28]	; (800057c <HAL_NVIC_SetPriority+0x60>)
 8000560:	ea4f 1303 	mov.w	r3, r3, lsl #4
 8000564:	b2db      	uxtb	r3, r3
 8000566:	bfab      	itete	ge
 8000568:	f500 4061 	addge.w	r0, r0, #57600	; 0xe100
 800056c:	f000 000f 	andlt.w	r0, r0, #15
 8000570:	f880 3300 	strbge.w	r3, [r0, #768]	; 0x300
 8000574:	5413      	strblt	r3, [r2, r0]
 8000576:	bd30      	pop	{r4, r5, pc}
 8000578:	e000ed00 	.word	0xe000ed00
 800057c:	e000ed14 	.word	0xe000ed14

08000580 <HAL_NVIC_EnableIRQ>:
 8000580:	2800      	cmp	r0, #0
 8000582:	db08      	blt.n	8000596 <HAL_NVIC_EnableIRQ+0x16>
 8000584:	2301      	movs	r3, #1
 8000586:	0942      	lsrs	r2, r0, #5
 8000588:	f000 001f 	and.w	r0, r0, #31
 800058c:	fa03 f000 	lsl.w	r0, r3, r0
 8000590:	4b01      	ldr	r3, [pc, #4]	; (8000598 <HAL_NVIC_EnableIRQ+0x18>)
 8000592:	f843 0022 	str.w	r0, [r3, r2, lsl #2]
 8000596:	4770      	bx	lr
 8000598:	e000e100 	.word	0xe000e100

0800059c <HAL_GPIO_Init>:
 800059c:	e92d 4ff7 	stmdb	sp!, {r0, r1, r2, r4, r5, r6, r7, r8, r9, sl, fp, lr}
 80005a0:	2200      	movs	r2, #0
 80005a2:	4616      	mov	r6, r2
 80005a4:	4f61      	ldr	r7, [pc, #388]	; (800072c <HAL_GPIO_Init+0x190>)
 80005a6:	4b62      	ldr	r3, [pc, #392]	; (8000730 <HAL_GPIO_Init+0x194>)
 80005a8:	f8df c188 	ldr.w	ip, [pc, #392]	; 8000734 <HAL_GPIO_Init+0x198>
 80005ac:	f8df e188 	ldr.w	lr, [pc, #392]	; 8000738 <HAL_GPIO_Init+0x19c>
 80005b0:	680d      	ldr	r5, [r1, #0]
 80005b2:	fa35 f406 	lsrs.w	r4, r5, r6
 80005b6:	d102      	bne.n	80005be <HAL_GPIO_Init+0x22>
 80005b8:	b003      	add	sp, #12
 80005ba:	e8bd 8ff0 	ldmia.w	sp!, {r4, r5, r6, r7, r8, r9, sl, fp, pc}
 80005be:	f04f 0801 	mov.w	r8, #1
 80005c2:	fa08 f806 	lsl.w	r8, r8, r6
 80005c6:	ea05 0408 	and.w	r4, r5, r8
 80005ca:	ea38 0505 	bics.w	r5, r8, r5
 80005ce:	d177      	bne.n	80006c0 <HAL_GPIO_Init+0x124>
 80005d0:	684d      	ldr	r5, [r1, #4]
 80005d2:	2d03      	cmp	r5, #3
 80005d4:	d807      	bhi.n	80005e6 <HAL_GPIO_Init+0x4a>
 80005d6:	3d01      	subs	r5, #1
 80005d8:	2d02      	cmp	r5, #2
 80005da:	f200 8082 	bhi.w	80006e2 <HAL_GPIO_Init+0x146>
 80005de:	e8df f005 	tbb	[pc, r5]
 80005e2:	9792      	.short	0x9792
 80005e4:	9d          	.byte	0x9d
 80005e5:	00          	.byte	0x00
 80005e6:	2d12      	cmp	r5, #18
 80005e8:	f000 8095 	beq.w	8000716 <HAL_GPIO_Init+0x17a>
 80005ec:	d86a      	bhi.n	80006c4 <HAL_GPIO_Init+0x128>
 80005ee:	2d11      	cmp	r5, #17
 80005f0:	f000 808b 	beq.w	800070a <HAL_GPIO_Init+0x16e>
 80005f4:	2cff      	cmp	r4, #255	; 0xff
 80005f6:	bf98      	it	ls
 80005f8:	4682      	movls	sl, r0
 80005fa:	f04f 090f 	mov.w	r9, #15
 80005fe:	bf88      	it	hi
 8000600:	f100 0a04 	addhi.w	sl, r0, #4
 8000604:	ea4f 0586 	mov.w	r5, r6, lsl #2
 8000608:	f8da 8000 	ldr.w	r8, [sl]
 800060c:	bf88      	it	hi
 800060e:	3d20      	subhi	r5, #32
 8000610:	fa09 fb05 	lsl.w	fp, r9, r5
 8000614:	ea28 080b 	bic.w	r8, r8, fp
 8000618:	fa02 f505 	lsl.w	r5, r2, r5
 800061c:	ea48 0505 	orr.w	r5, r8, r5
 8000620:	f8ca 5000 	str.w	r5, [sl]
 8000624:	f8d1 a004 	ldr.w	sl, [r1, #4]
 8000628:	f01a 5f80 	tst.w	sl, #268435456	; 0x10000000
 800062c:	d048      	beq.n	80006c0 <HAL_GPIO_Init+0x124>
 800062e:	69bd      	ldr	r5, [r7, #24]
 8000630:	f026 0803 	bic.w	r8, r6, #3
 8000634:	f045 0501 	orr.w	r5, r5, #1
 8000638:	61bd      	str	r5, [r7, #24]
 800063a:	69bd      	ldr	r5, [r7, #24]
 800063c:	f108 4880 	add.w	r8, r8, #1073741824	; 0x40000000
 8000640:	f005 0501 	and.w	r5, r5, #1
 8000644:	9501      	str	r5, [sp, #4]
 8000646:	f508 3880 	add.w	r8, r8, #65536	; 0x10000
 800064a:	f006 0b03 	and.w	fp, r6, #3
 800064e:	9d01      	ldr	r5, [sp, #4]
 8000650:	ea4f 0b8b 	mov.w	fp, fp, lsl #2
 8000654:	f8d8 5008 	ldr.w	r5, [r8, #8]
 8000658:	fa09 f90b 	lsl.w	r9, r9, fp
 800065c:	ea25 0909 	bic.w	r9, r5, r9
 8000660:	4d36      	ldr	r5, [pc, #216]	; (800073c <HAL_GPIO_Init+0x1a0>)
 8000662:	42a8      	cmp	r0, r5
 8000664:	d05e      	beq.n	8000724 <HAL_GPIO_Init+0x188>
 8000666:	f505 6580 	add.w	r5, r5, #1024	; 0x400
 800066a:	42a8      	cmp	r0, r5
 800066c:	d05c      	beq.n	8000728 <HAL_GPIO_Init+0x18c>
 800066e:	f505 6580 	add.w	r5, r5, #1024	; 0x400
 8000672:	42a8      	cmp	r0, r5
 8000674:	bf0c      	ite	eq
 8000676:	2502      	moveq	r5, #2
 8000678:	2503      	movne	r5, #3
 800067a:	fa05 f50b 	lsl.w	r5, r5, fp
 800067e:	ea45 0509 	orr.w	r5, r5, r9
 8000682:	f8c8 5008 	str.w	r5, [r8, #8]
 8000686:	681d      	ldr	r5, [r3, #0]
 8000688:	f41a 3f80 	tst.w	sl, #65536	; 0x10000
 800068c:	bf14      	ite	ne
 800068e:	4325      	orrne	r5, r4
 8000690:	43a5      	biceq	r5, r4
 8000692:	601d      	str	r5, [r3, #0]
 8000694:	685d      	ldr	r5, [r3, #4]
 8000696:	f41a 3f00 	tst.w	sl, #131072	; 0x20000
 800069a:	bf14      	ite	ne
 800069c:	4325      	orrne	r5, r4
 800069e:	43a5      	biceq	r5, r4
 80006a0:	605d      	str	r5, [r3, #4]
 80006a2:	689d      	ldr	r5, [r3, #8]
 80006a4:	f41a 1f80 	tst.w	sl, #1048576	; 0x100000
 80006a8:	bf14      	ite	ne
 80006aa:	4325      	orrne	r5, r4
 80006ac:	43a5      	biceq	r5, r4
 80006ae:	609d      	str	r5, [r3, #8]
 80006b0:	68dd      	ldr	r5, [r3, #12]
 80006b2:	f41a 1f00 	tst.w	sl, #2097152	; 0x200000
 80006b6:	bf14      	ite	ne
 80006b8:	432c      	orrne	r4, r5
 80006ba:	ea25 0404 	biceq.w	r4, r5, r4
 80006be:	60dc      	str	r4, [r3, #12]
 80006c0:	3601      	adds	r6, #1
 80006c2:	e775      	b.n	80005b0 <HAL_GPIO_Init+0x14>
 80006c4:	f8df 9078 	ldr.w	r9, [pc, #120]	; 8000740 <HAL_GPIO_Init+0x1a4>
 80006c8:	454d      	cmp	r5, r9
 80006ca:	d00a      	beq.n	80006e2 <HAL_GPIO_Init+0x146>
 80006cc:	d815      	bhi.n	80006fa <HAL_GPIO_Init+0x15e>
 80006ce:	4575      	cmp	r5, lr
 80006d0:	d007      	beq.n	80006e2 <HAL_GPIO_Init+0x146>
 80006d2:	f5a9 3980 	sub.w	r9, r9, #65536	; 0x10000
 80006d6:	454d      	cmp	r5, r9
 80006d8:	d003      	beq.n	80006e2 <HAL_GPIO_Init+0x146>
 80006da:	f5a9 1980 	sub.w	r9, r9, #1048576	; 0x100000
 80006de:	454d      	cmp	r5, r9
 80006e0:	d188      	bne.n	80005f4 <HAL_GPIO_Init+0x58>
 80006e2:	688a      	ldr	r2, [r1, #8]
 80006e4:	b1e2      	cbz	r2, 8000720 <HAL_GPIO_Init+0x184>
 80006e6:	2a01      	cmp	r2, #1
 80006e8:	bf08      	it	eq
 80006ea:	f8c0 8010 	streq.w	r8, [r0, #16]
 80006ee:	f04f 0208 	mov.w	r2, #8
 80006f2:	bf18      	it	ne
 80006f4:	f8c0 8014 	strne.w	r8, [r0, #20]
 80006f8:	e77c      	b.n	80005f4 <HAL_GPIO_Init+0x58>
 80006fa:	f8df 9048 	ldr.w	r9, [pc, #72]	; 8000744 <HAL_GPIO_Init+0x1a8>
 80006fe:	454d      	cmp	r5, r9
 8000700:	d0ef      	beq.n	80006e2 <HAL_GPIO_Init+0x146>
 8000702:	4565      	cmp	r5, ip
 8000704:	e7ec      	b.n	80006e0 <HAL_GPIO_Init+0x144>
 8000706:	68ca      	ldr	r2, [r1, #12]
 8000708:	e774      	b.n	80005f4 <HAL_GPIO_Init+0x58>
 800070a:	68ca      	ldr	r2, [r1, #12]
 800070c:	3204      	adds	r2, #4
 800070e:	e771      	b.n	80005f4 <HAL_GPIO_Init+0x58>
 8000710:	68ca      	ldr	r2, [r1, #12]
 8000712:	3208      	adds	r2, #8
 8000714:	e76e      	b.n	80005f4 <HAL_GPIO_Init+0x58>
 8000716:	68ca      	ldr	r2, [r1, #12]
 8000718:	320c      	adds	r2, #12
 800071a:	e76b      	b.n	80005f4 <HAL_GPIO_Init+0x58>
 800071c:	2200      	movs	r2, #0
 800071e:	e769      	b.n	80005f4 <HAL_GPIO_Init+0x58>
 8000720:	2204      	movs	r2, #4
 8000722:	e767      	b.n	80005f4 <HAL_GPIO_Init+0x58>
 8000724:	2500      	movs	r5, #0
 8000726:	e7a8      	b.n	800067a <HAL_GPIO_Init+0xde>
 8000728:	2501      	movs	r5, #1
 800072a:	e7a6      	b.n	800067a <HAL_GPIO_Init+0xde>
 800072c:	40021000 	.word	0x40021000
 8000730:	40010400 	.word	0x40010400
 8000734:	10320000 	.word	0x10320000
 8000738:	10120000 	.word	0x10120000
 800073c:	40010800 	.word	0x40010800
 8000740:	10220000 	.word	0x10220000
 8000744:	10310000 	.word	0x10310000

08000748 <HAL_RCC_OscConfig>:
 8000748:	e92d 41f3 	stmdb	sp!, {r0, r1, r4, r5, r6, r7, r8, lr}
 800074c:	4605      	mov	r5, r0
 800074e:	b338      	cbz	r0, 80007a0 <HAL_RCC_OscConfig+0x58>
 8000750:	6803      	ldr	r3, [r0, #0]
 8000752:	07db      	lsls	r3, r3, #31
 8000754:	d410      	bmi.n	8000778 <HAL_RCC_OscConfig+0x30>
 8000756:	682b      	ldr	r3, [r5, #0]
 8000758:	079f      	lsls	r7, r3, #30
 800075a:	d45e      	bmi.n	800081a <HAL_RCC_OscConfig+0xd2>
 800075c:	682b      	ldr	r3, [r5, #0]
 800075e:	0719      	lsls	r1, r3, #28
 8000760:	f100 8095 	bmi.w	800088e <HAL_RCC_OscConfig+0x146>
 8000764:	682b      	ldr	r3, [r5, #0]
 8000766:	075a      	lsls	r2, r3, #29
 8000768:	f100 80c1 	bmi.w	80008ee <HAL_RCC_OscConfig+0x1a6>
 800076c:	69e8      	ldr	r0, [r5, #28]
 800076e:	2800      	cmp	r0, #0
 8000770:	f040 812c 	bne.w	80009cc <HAL_RCC_OscConfig+0x284>
 8000774:	2000      	movs	r0, #0
 8000776:	e029      	b.n	80007cc <HAL_RCC_OscConfig+0x84>
 8000778:	4c90      	ldr	r4, [pc, #576]	; (80009bc <HAL_RCC_OscConfig+0x274>)
 800077a:	6863      	ldr	r3, [r4, #4]
 800077c:	f003 030c 	and.w	r3, r3, #12
 8000780:	2b04      	cmp	r3, #4
 8000782:	d007      	beq.n	8000794 <HAL_RCC_OscConfig+0x4c>
 8000784:	6863      	ldr	r3, [r4, #4]
 8000786:	f003 030c 	and.w	r3, r3, #12
 800078a:	2b08      	cmp	r3, #8
 800078c:	d10a      	bne.n	80007a4 <HAL_RCC_OscConfig+0x5c>
 800078e:	6863      	ldr	r3, [r4, #4]
 8000790:	03de      	lsls	r6, r3, #15
 8000792:	d507      	bpl.n	80007a4 <HAL_RCC_OscConfig+0x5c>
 8000794:	6823      	ldr	r3, [r4, #0]
 8000796:	039c      	lsls	r4, r3, #14
 8000798:	d5dd      	bpl.n	8000756 <HAL_RCC_OscConfig+0xe>
 800079a:	686b      	ldr	r3, [r5, #4]
 800079c:	2b00      	cmp	r3, #0
 800079e:	d1da      	bne.n	8000756 <HAL_RCC_OscConfig+0xe>
 80007a0:	2001      	movs	r0, #1
 80007a2:	e013      	b.n	80007cc <HAL_RCC_OscConfig+0x84>
 80007a4:	686b      	ldr	r3, [r5, #4]
 80007a6:	f5b3 3f80 	cmp.w	r3, #65536	; 0x10000
 80007aa:	d112      	bne.n	80007d2 <HAL_RCC_OscConfig+0x8a>
 80007ac:	6823      	ldr	r3, [r4, #0]
 80007ae:	f443 3380 	orr.w	r3, r3, #65536	; 0x10000
 80007b2:	6023      	str	r3, [r4, #0]
 80007b4:	f7ff fe9a 	bl	80004ec <HAL_GetTick>
 80007b8:	4606      	mov	r6, r0
 80007ba:	6823      	ldr	r3, [r4, #0]
 80007bc:	0398      	lsls	r0, r3, #14
 80007be:	d4ca      	bmi.n	8000756 <HAL_RCC_OscConfig+0xe>
 80007c0:	f7ff fe94 	bl	80004ec <HAL_GetTick>
 80007c4:	1b80      	subs	r0, r0, r6
 80007c6:	2864      	cmp	r0, #100	; 0x64
 80007c8:	d9f7      	bls.n	80007ba <HAL_RCC_OscConfig+0x72>
 80007ca:	2003      	movs	r0, #3
 80007cc:	b002      	add	sp, #8
 80007ce:	e8bd 81f0 	ldmia.w	sp!, {r4, r5, r6, r7, r8, pc}
 80007d2:	b99b      	cbnz	r3, 80007fc <HAL_RCC_OscConfig+0xb4>
 80007d4:	6823      	ldr	r3, [r4, #0]
 80007d6:	f423 3380 	bic.w	r3, r3, #65536	; 0x10000
 80007da:	6023      	str	r3, [r4, #0]
 80007dc:	6823      	ldr	r3, [r4, #0]
 80007de:	f423 2380 	bic.w	r3, r3, #262144	; 0x40000
 80007e2:	6023      	str	r3, [r4, #0]
 80007e4:	f7ff fe82 	bl	80004ec <HAL_GetTick>
 80007e8:	4606      	mov	r6, r0
 80007ea:	6823      	ldr	r3, [r4, #0]
 80007ec:	0399      	lsls	r1, r3, #14
 80007ee:	d5b2      	bpl.n	8000756 <HAL_RCC_OscConfig+0xe>
 80007f0:	f7ff fe7c 	bl	80004ec <HAL_GetTick>
 80007f4:	1b80      	subs	r0, r0, r6
 80007f6:	2864      	cmp	r0, #100	; 0x64
 80007f8:	d9f7      	bls.n	80007ea <HAL_RCC_OscConfig+0xa2>
 80007fa:	e7e6      	b.n	80007ca <HAL_RCC_OscConfig+0x82>
 80007fc:	f5b3 2fa0 	cmp.w	r3, #327680	; 0x50000
 8000800:	6823      	ldr	r3, [r4, #0]
 8000802:	d103      	bne.n	800080c <HAL_RCC_OscConfig+0xc4>
 8000804:	f443 2380 	orr.w	r3, r3, #262144	; 0x40000
 8000808:	6023      	str	r3, [r4, #0]
 800080a:	e7cf      	b.n	80007ac <HAL_RCC_OscConfig+0x64>
 800080c:	f423 3380 	bic.w	r3, r3, #65536	; 0x10000
 8000810:	6023      	str	r3, [r4, #0]
 8000812:	6823      	ldr	r3, [r4, #0]
 8000814:	f423 2380 	bic.w	r3, r3, #262144	; 0x40000
 8000818:	e7cb      	b.n	80007b2 <HAL_RCC_OscConfig+0x6a>
 800081a:	4c68      	ldr	r4, [pc, #416]	; (80009bc <HAL_RCC_OscConfig+0x274>)
 800081c:	6863      	ldr	r3, [r4, #4]
 800081e:	f013 0f0c 	tst.w	r3, #12
 8000822:	d007      	beq.n	8000834 <HAL_RCC_OscConfig+0xec>
 8000824:	6863      	ldr	r3, [r4, #4]
 8000826:	f003 030c 	and.w	r3, r3, #12
 800082a:	2b08      	cmp	r3, #8
 800082c:	d110      	bne.n	8000850 <HAL_RCC_OscConfig+0x108>
 800082e:	6863      	ldr	r3, [r4, #4]
 8000830:	03da      	lsls	r2, r3, #15
 8000832:	d40d      	bmi.n	8000850 <HAL_RCC_OscConfig+0x108>
 8000834:	6823      	ldr	r3, [r4, #0]
 8000836:	079b      	lsls	r3, r3, #30
 8000838:	d502      	bpl.n	8000840 <HAL_RCC_OscConfig+0xf8>
 800083a:	692b      	ldr	r3, [r5, #16]
 800083c:	2b01      	cmp	r3, #1
 800083e:	d1af      	bne.n	80007a0 <HAL_RCC_OscConfig+0x58>
 8000840:	6823      	ldr	r3, [r4, #0]
 8000842:	696a      	ldr	r2, [r5, #20]
 8000844:	f023 03f8 	bic.w	r3, r3, #248	; 0xf8
 8000848:	ea43 03c2 	orr.w	r3, r3, r2, lsl #3
 800084c:	6023      	str	r3, [r4, #0]
 800084e:	e785      	b.n	800075c <HAL_RCC_OscConfig+0x14>
 8000850:	692a      	ldr	r2, [r5, #16]
 8000852:	4b5b      	ldr	r3, [pc, #364]	; (80009c0 <HAL_RCC_OscConfig+0x278>)
 8000854:	b16a      	cbz	r2, 8000872 <HAL_RCC_OscConfig+0x12a>
 8000856:	2201      	movs	r2, #1
 8000858:	601a      	str	r2, [r3, #0]
 800085a:	f7ff fe47 	bl	80004ec <HAL_GetTick>
 800085e:	4606      	mov	r6, r0
 8000860:	6823      	ldr	r3, [r4, #0]
 8000862:	079f      	lsls	r7, r3, #30
 8000864:	d4ec      	bmi.n	8000840 <HAL_RCC_OscConfig+0xf8>
 8000866:	f7ff fe41 	bl	80004ec <HAL_GetTick>
 800086a:	1b80      	subs	r0, r0, r6
 800086c:	2802      	cmp	r0, #2
 800086e:	d9f7      	bls.n	8000860 <HAL_RCC_OscConfig+0x118>
 8000870:	e7ab      	b.n	80007ca <HAL_RCC_OscConfig+0x82>
 8000872:	601a      	str	r2, [r3, #0]
 8000874:	f7ff fe3a 	bl	80004ec <HAL_GetTick>
 8000878:	4606      	mov	r6, r0
 800087a:	6823      	ldr	r3, [r4, #0]
 800087c:	0798      	lsls	r0, r3, #30
 800087e:	f57f af6d 	bpl.w	800075c <HAL_RCC_OscConfig+0x14>
 8000882:	f7ff fe33 	bl	80004ec <HAL_GetTick>
 8000886:	1b80      	subs	r0, r0, r6
 8000888:	2802      	cmp	r0, #2
 800088a:	d9f6      	bls.n	800087a <HAL_RCC_OscConfig+0x132>
 800088c:	e79d      	b.n	80007ca <HAL_RCC_OscConfig+0x82>
 800088e:	69aa      	ldr	r2, [r5, #24]
 8000890:	4e4a      	ldr	r6, [pc, #296]	; (80009bc <HAL_RCC_OscConfig+0x274>)
 8000892:	4b4b      	ldr	r3, [pc, #300]	; (80009c0 <HAL_RCC_OscConfig+0x278>)
 8000894:	b1e2      	cbz	r2, 80008d0 <HAL_RCC_OscConfig+0x188>
 8000896:	2201      	movs	r2, #1
 8000898:	f8c3 2480 	str.w	r2, [r3, #1152]	; 0x480
 800089c:	f7ff fe26 	bl	80004ec <HAL_GetTick>
 80008a0:	4604      	mov	r4, r0
 80008a2:	6a73      	ldr	r3, [r6, #36]	; 0x24
 80008a4:	079b      	lsls	r3, r3, #30
 80008a6:	d50d      	bpl.n	80008c4 <HAL_RCC_OscConfig+0x17c>
 80008a8:	f44f 52fa 	mov.w	r2, #8000	; 0x1f40
 80008ac:	4b45      	ldr	r3, [pc, #276]	; (80009c4 <HAL_RCC_OscConfig+0x27c>)
 80008ae:	681b      	ldr	r3, [r3, #0]
 80008b0:	fbb3 f3f2 	udiv	r3, r3, r2
 80008b4:	9301      	str	r3, [sp, #4]
 80008b6:	bf00      	nop
 80008b8:	9b01      	ldr	r3, [sp, #4]
 80008ba:	1e5a      	subs	r2, r3, #1
 80008bc:	9201      	str	r2, [sp, #4]
 80008be:	2b00      	cmp	r3, #0
 80008c0:	d1f9      	bne.n	80008b6 <HAL_RCC_OscConfig+0x16e>
 80008c2:	e74f      	b.n	8000764 <HAL_RCC_OscConfig+0x1c>
 80008c4:	f7ff fe12 	bl	80004ec <HAL_GetTick>
 80008c8:	1b00      	subs	r0, r0, r4
 80008ca:	2802      	cmp	r0, #2
 80008cc:	d9e9      	bls.n	80008a2 <HAL_RCC_OscConfig+0x15a>
 80008ce:	e77c      	b.n	80007ca <HAL_RCC_OscConfig+0x82>
 80008d0:	f8c3 2480 	str.w	r2, [r3, #1152]	; 0x480
 80008d4:	f7ff fe0a 	bl	80004ec <HAL_GetTick>
 80008d8:	4604      	mov	r4, r0
 80008da:	6a73      	ldr	r3, [r6, #36]	; 0x24
 80008dc:	079f      	lsls	r7, r3, #30
 80008de:	f57f af41 	bpl.w	8000764 <HAL_RCC_OscConfig+0x1c>
 80008e2:	f7ff fe03 	bl	80004ec <HAL_GetTick>
 80008e6:	1b00      	subs	r0, r0, r4
 80008e8:	2802      	cmp	r0, #2
 80008ea:	d9f6      	bls.n	80008da <HAL_RCC_OscConfig+0x192>
 80008ec:	e76d      	b.n	80007ca <HAL_RCC_OscConfig+0x82>
 80008ee:	4c33      	ldr	r4, [pc, #204]	; (80009bc <HAL_RCC_OscConfig+0x274>)
 80008f0:	69e3      	ldr	r3, [r4, #28]
 80008f2:	00d8      	lsls	r0, r3, #3
 80008f4:	d424      	bmi.n	8000940 <HAL_RCC_OscConfig+0x1f8>
 80008f6:	2701      	movs	r7, #1
 80008f8:	69e3      	ldr	r3, [r4, #28]
 80008fa:	f043 5380 	orr.w	r3, r3, #268435456	; 0x10000000
 80008fe:	61e3      	str	r3, [r4, #28]
 8000900:	69e3      	ldr	r3, [r4, #28]
 8000902:	f003 5380 	and.w	r3, r3, #268435456	; 0x10000000
 8000906:	9300      	str	r3, [sp, #0]
 8000908:	9b00      	ldr	r3, [sp, #0]
 800090a:	4e2f      	ldr	r6, [pc, #188]	; (80009c8 <HAL_RCC_OscConfig+0x280>)
 800090c:	6833      	ldr	r3, [r6, #0]
 800090e:	05d9      	lsls	r1, r3, #23
 8000910:	d518      	bpl.n	8000944 <HAL_RCC_OscConfig+0x1fc>
 8000912:	68eb      	ldr	r3, [r5, #12]
 8000914:	2b01      	cmp	r3, #1
 8000916:	d126      	bne.n	8000966 <HAL_RCC_OscConfig+0x21e>
 8000918:	6a23      	ldr	r3, [r4, #32]
 800091a:	f043 0301 	orr.w	r3, r3, #1
 800091e:	6223      	str	r3, [r4, #32]
 8000920:	f7ff fde4 	bl	80004ec <HAL_GetTick>
 8000924:	f241 3888 	movw	r8, #5000	; 0x1388
 8000928:	4606      	mov	r6, r0
 800092a:	6a23      	ldr	r3, [r4, #32]
 800092c:	079b      	lsls	r3, r3, #30
 800092e:	d53f      	bpl.n	80009b0 <HAL_RCC_OscConfig+0x268>
 8000930:	2f00      	cmp	r7, #0
 8000932:	f43f af1b 	beq.w	800076c <HAL_RCC_OscConfig+0x24>
 8000936:	69e3      	ldr	r3, [r4, #28]
 8000938:	f023 5380 	bic.w	r3, r3, #268435456	; 0x10000000
 800093c:	61e3      	str	r3, [r4, #28]
 800093e:	e715      	b.n	800076c <HAL_RCC_OscConfig+0x24>
 8000940:	2700      	movs	r7, #0
 8000942:	e7e2      	b.n	800090a <HAL_RCC_OscConfig+0x1c2>
 8000944:	6833      	ldr	r3, [r6, #0]
 8000946:	f443 7380 	orr.w	r3, r3, #256	; 0x100
 800094a:	6033      	str	r3, [r6, #0]
 800094c:	f7ff fdce 	bl	80004ec <HAL_GetTick>
 8000950:	4680      	mov	r8, r0
 8000952:	6833      	ldr	r3, [r6, #0]
 8000954:	05da      	lsls	r2, r3, #23
 8000956:	d4dc      	bmi.n	8000912 <HAL_RCC_OscConfig+0x1ca>
 8000958:	f7ff fdc8 	bl	80004ec <HAL_GetTick>
 800095c:	eba0 0008 	sub.w	r0, r0, r8
 8000960:	2864      	cmp	r0, #100	; 0x64
 8000962:	d9f6      	bls.n	8000952 <HAL_RCC_OscConfig+0x20a>
 8000964:	e731      	b.n	80007ca <HAL_RCC_OscConfig+0x82>
 8000966:	b9ab      	cbnz	r3, 8000994 <HAL_RCC_OscConfig+0x24c>
 8000968:	6a23      	ldr	r3, [r4, #32]
 800096a:	f241 3888 	movw	r8, #5000	; 0x1388
 800096e:	f023 0301 	bic.w	r3, r3, #1
 8000972:	6223      	str	r3, [r4, #32]
 8000974:	6a23      	ldr	r3, [r4, #32]
 8000976:	f023 0304 	bic.w	r3, r3, #4
 800097a:	6223      	str	r3, [r4, #32]
 800097c:	f7ff fdb6 	bl	80004ec <HAL_GetTick>
 8000980:	4606      	mov	r6, r0
 8000982:	6a23      	ldr	r3, [r4, #32]
 8000984:	0798      	lsls	r0, r3, #30
 8000986:	d5d3      	bpl.n	8000930 <HAL_RCC_OscConfig+0x1e8>
 8000988:	f7ff fdb0 	bl	80004ec <HAL_GetTick>
 800098c:	1b80      	subs	r0, r0, r6
 800098e:	4540      	cmp	r0, r8
 8000990:	d9f7      	bls.n	8000982 <HAL_RCC_OscConfig+0x23a>
 8000992:	e71a      	b.n	80007ca <HAL_RCC_OscConfig+0x82>
 8000994:	2b05      	cmp	r3, #5
 8000996:	6a23      	ldr	r3, [r4, #32]
 8000998:	d103      	bne.n	80009a2 <HAL_RCC_OscConfig+0x25a>
 800099a:	f043 0304 	orr.w	r3, r3, #4
 800099e:	6223      	str	r3, [r4, #32]
 80009a0:	e7ba      	b.n	8000918 <HAL_RCC_OscConfig+0x1d0>
 80009a2:	f023 0301 	bic.w	r3, r3, #1
 80009a6:	6223      	str	r3, [r4, #32]
 80009a8:	6a23      	ldr	r3, [r4, #32]
 80009aa:	f023 0304 	bic.w	r3, r3, #4
 80009ae:	e7b6      	b.n	800091e <HAL_RCC_OscConfig+0x1d6>
 80009b0:	f7ff fd9c 	bl	80004ec <HAL_GetTick>
 80009b4:	1b80      	subs	r0, r0, r6
 80009b6:	4540      	cmp	r0, r8
 80009b8:	d9b7      	bls.n	800092a <HAL_RCC_OscConfig+0x1e2>
 80009ba:	e706      	b.n	80007ca <HAL_RCC_OscConfig+0x82>
 80009bc:	40021000 	.word	0x40021000
 80009c0:	42420000 	.word	0x42420000
 80009c4:	20000000 	.word	0x20000000
 80009c8:	40007000 	.word	0x40007000
 80009cc:	4c2a      	ldr	r4, [pc, #168]	; (8000a78 <HAL_RCC_OscConfig+0x330>)
 80009ce:	6863      	ldr	r3, [r4, #4]
 80009d0:	f003 030c 	and.w	r3, r3, #12
 80009d4:	2b08      	cmp	r3, #8
 80009d6:	d03e      	beq.n	8000a56 <HAL_RCC_OscConfig+0x30e>
 80009d8:	2200      	movs	r2, #0
 80009da:	4b28      	ldr	r3, [pc, #160]	; (8000a7c <HAL_RCC_OscConfig+0x334>)
 80009dc:	2802      	cmp	r0, #2
 80009de:	661a      	str	r2, [r3, #96]	; 0x60
 80009e0:	d12c      	bne.n	8000a3c <HAL_RCC_OscConfig+0x2f4>
 80009e2:	f7ff fd83 	bl	80004ec <HAL_GetTick>
 80009e6:	4606      	mov	r6, r0
 80009e8:	6823      	ldr	r3, [r4, #0]
 80009ea:	0199      	lsls	r1, r3, #6
 80009ec:	d420      	bmi.n	8000a30 <HAL_RCC_OscConfig+0x2e8>
 80009ee:	6a2b      	ldr	r3, [r5, #32]
 80009f0:	f5b3 3f80 	cmp.w	r3, #65536	; 0x10000
 80009f4:	d105      	bne.n	8000a02 <HAL_RCC_OscConfig+0x2ba>
 80009f6:	6862      	ldr	r2, [r4, #4]
 80009f8:	68a9      	ldr	r1, [r5, #8]
 80009fa:	f422 3200 	bic.w	r2, r2, #131072	; 0x20000
 80009fe:	430a      	orrs	r2, r1
 8000a00:	6062      	str	r2, [r4, #4]
 8000a02:	6a69      	ldr	r1, [r5, #36]	; 0x24
 8000a04:	6862      	ldr	r2, [r4, #4]
 8000a06:	430b      	orrs	r3, r1
 8000a08:	f422 1274 	bic.w	r2, r2, #3997696	; 0x3d0000
 8000a0c:	4313      	orrs	r3, r2
 8000a0e:	2201      	movs	r2, #1
 8000a10:	6063      	str	r3, [r4, #4]
 8000a12:	4b1a      	ldr	r3, [pc, #104]	; (8000a7c <HAL_RCC_OscConfig+0x334>)
 8000a14:	661a      	str	r2, [r3, #96]	; 0x60
 8000a16:	f7ff fd69 	bl	80004ec <HAL_GetTick>
 8000a1a:	4605      	mov	r5, r0
 8000a1c:	6823      	ldr	r3, [r4, #0]
 8000a1e:	019a      	lsls	r2, r3, #6
 8000a20:	f53f aea8 	bmi.w	8000774 <HAL_RCC_OscConfig+0x2c>
 8000a24:	f7ff fd62 	bl	80004ec <HAL_GetTick>
 8000a28:	1b40      	subs	r0, r0, r5
 8000a2a:	2802      	cmp	r0, #2
 8000a2c:	d9f6      	bls.n	8000a1c <HAL_RCC_OscConfig+0x2d4>
 8000a2e:	e6cc      	b.n	80007ca <HAL_RCC_OscConfig+0x82>
 8000a30:	f7ff fd5c 	bl	80004ec <HAL_GetTick>
 8000a34:	1b80      	subs	r0, r0, r6
 8000a36:	2802      	cmp	r0, #2
 8000a38:	d9d6      	bls.n	80009e8 <HAL_RCC_OscConfig+0x2a0>
 8000a3a:	e6c6      	b.n	80007ca <HAL_RCC_OscConfig+0x82>
 8000a3c:	f7ff fd56 	bl	80004ec <HAL_GetTick>
 8000a40:	4605      	mov	r5, r0
 8000a42:	6823      	ldr	r3, [r4, #0]
 8000a44:	019b      	lsls	r3, r3, #6
 8000a46:	f57f ae95 	bpl.w	8000774 <HAL_RCC_OscConfig+0x2c>
 8000a4a:	f7ff fd4f 	bl	80004ec <HAL_GetTick>
 8000a4e:	1b40      	subs	r0, r0, r5
 8000a50:	2802      	cmp	r0, #2
 8000a52:	d9f6      	bls.n	8000a42 <HAL_RCC_OscConfig+0x2fa>
 8000a54:	e6b9      	b.n	80007ca <HAL_RCC_OscConfig+0x82>
 8000a56:	2801      	cmp	r0, #1
 8000a58:	f43f aeb8 	beq.w	80007cc <HAL_RCC_OscConfig+0x84>
 8000a5c:	6863      	ldr	r3, [r4, #4]
 8000a5e:	6a2a      	ldr	r2, [r5, #32]
 8000a60:	f403 3180 	and.w	r1, r3, #65536	; 0x10000
 8000a64:	4291      	cmp	r1, r2
 8000a66:	f47f ae9b 	bne.w	80007a0 <HAL_RCC_OscConfig+0x58>
 8000a6a:	6a6a      	ldr	r2, [r5, #36]	; 0x24
 8000a6c:	f403 1370 	and.w	r3, r3, #3932160	; 0x3c0000
 8000a70:	4293      	cmp	r3, r2
 8000a72:	f43f ae7f 	beq.w	8000774 <HAL_RCC_OscConfig+0x2c>
 8000a76:	e693      	b.n	80007a0 <HAL_RCC_OscConfig+0x58>
 8000a78:	40021000 	.word	0x40021000
 8000a7c:	42420000 	.word	0x42420000

08000a80 <HAL_RCC_GetSysClockFreq>:
 8000a80:	b530      	push	{r4, r5, lr}
 8000a82:	4b18      	ldr	r3, [pc, #96]	; (8000ae4 <HAL_RCC_GetSysClockFreq+0x64>)
 8000a84:	b087      	sub	sp, #28
 8000a86:	ac02      	add	r4, sp, #8
 8000a88:	f103 0510 	add.w	r5, r3, #16
 8000a8c:	4622      	mov	r2, r4
 8000a8e:	6818      	ldr	r0, [r3, #0]
 8000a90:	6859      	ldr	r1, [r3, #4]
 8000a92:	3308      	adds	r3, #8
 8000a94:	c203      	stmia	r2!, {r0, r1}
 8000a96:	42ab      	cmp	r3, r5
 8000a98:	4614      	mov	r4, r2
 8000a9a:	d1f7      	bne.n	8000a8c <HAL_RCC_GetSysClockFreq+0xc>
 8000a9c:	f240 2301 	movw	r3, #513	; 0x201
 8000aa0:	4911      	ldr	r1, [pc, #68]	; (8000ae8 <HAL_RCC_GetSysClockFreq+0x68>)
 8000aa2:	f8ad 3004 	strh.w	r3, [sp, #4]
 8000aa6:	684b      	ldr	r3, [r1, #4]
 8000aa8:	f003 020c 	and.w	r2, r3, #12
 8000aac:	2a08      	cmp	r2, #8
 8000aae:	d117      	bne.n	8000ae0 <HAL_RCC_GetSysClockFreq+0x60>
 8000ab0:	f3c3 4283 	ubfx	r2, r3, #18, #4
 8000ab4:	3218      	adds	r2, #24
 8000ab6:	446a      	add	r2, sp
 8000ab8:	03db      	lsls	r3, r3, #15
 8000aba:	f812 0c10 	ldrb.w	r0, [r2, #-16]
 8000abe:	d50c      	bpl.n	8000ada <HAL_RCC_GetSysClockFreq+0x5a>
 8000ac0:	684b      	ldr	r3, [r1, #4]
 8000ac2:	4a0a      	ldr	r2, [pc, #40]	; (8000aec <HAL_RCC_GetSysClockFreq+0x6c>)
 8000ac4:	f3c3 4340 	ubfx	r3, r3, #17, #1
 8000ac8:	4350      	muls	r0, r2
 8000aca:	3318      	adds	r3, #24
 8000acc:	446b      	add	r3, sp
 8000ace:	f813 3c14 	ldrb.w	r3, [r3, #-20]
 8000ad2:	fbb0 f0f3 	udiv	r0, r0, r3
 8000ad6:	b007      	add	sp, #28
 8000ad8:	bd30      	pop	{r4, r5, pc}
 8000ada:	4b05      	ldr	r3, [pc, #20]	; (8000af0 <HAL_RCC_GetSysClockFreq+0x70>)
 8000adc:	4358      	muls	r0, r3
 8000ade:	e7fa      	b.n	8000ad6 <HAL_RCC_GetSysClockFreq+0x56>
 8000ae0:	4802      	ldr	r0, [pc, #8]	; (8000aec <HAL_RCC_GetSysClockFreq+0x6c>)
 8000ae2:	e7f8      	b.n	8000ad6 <HAL_RCC_GetSysClockFreq+0x56>
 8000ae4:	08002f38 	.word	0x08002f38
 8000ae8:	40021000 	.word	0x40021000
 8000aec:	007a1200 	.word	0x007a1200
 8000af0:	003d0900 	.word	0x003d0900

08000af4 <HAL_RCC_ClockConfig>:
 8000af4:	e92d 41f0 	stmdb	sp!, {r4, r5, r6, r7, r8, lr}
 8000af8:	460d      	mov	r5, r1
 8000afa:	4604      	mov	r4, r0
 8000afc:	b910      	cbnz	r0, 8000b04 <HAL_RCC_ClockConfig+0x10>
 8000afe:	2001      	movs	r0, #1
 8000b00:	e8bd 81f0 	ldmia.w	sp!, {r4, r5, r6, r7, r8, pc}
 8000b04:	4a44      	ldr	r2, [pc, #272]	; (8000c18 <HAL_RCC_ClockConfig+0x124>)
 8000b06:	6813      	ldr	r3, [r2, #0]
 8000b08:	f003 0307 	and.w	r3, r3, #7
 8000b0c:	428b      	cmp	r3, r1
 8000b0e:	d328      	bcc.n	8000b62 <HAL_RCC_ClockConfig+0x6e>
 8000b10:	6821      	ldr	r1, [r4, #0]
 8000b12:	078e      	lsls	r6, r1, #30
 8000b14:	d430      	bmi.n	8000b78 <HAL_RCC_ClockConfig+0x84>
 8000b16:	07ca      	lsls	r2, r1, #31
 8000b18:	d443      	bmi.n	8000ba2 <HAL_RCC_ClockConfig+0xae>
 8000b1a:	4a3f      	ldr	r2, [pc, #252]	; (8000c18 <HAL_RCC_ClockConfig+0x124>)
 8000b1c:	6813      	ldr	r3, [r2, #0]
 8000b1e:	f003 0307 	and.w	r3, r3, #7
 8000b22:	42ab      	cmp	r3, r5
 8000b24:	d865      	bhi.n	8000bf2 <HAL_RCC_ClockConfig+0xfe>
 8000b26:	6822      	ldr	r2, [r4, #0]
 8000b28:	4d3c      	ldr	r5, [pc, #240]	; (8000c1c <HAL_RCC_ClockConfig+0x128>)
 8000b2a:	f012 0f04 	tst.w	r2, #4
 8000b2e:	d16c      	bne.n	8000c0a <HAL_RCC_ClockConfig+0x116>
 8000b30:	0713      	lsls	r3, r2, #28
 8000b32:	d506      	bpl.n	8000b42 <HAL_RCC_ClockConfig+0x4e>
 8000b34:	686b      	ldr	r3, [r5, #4]
 8000b36:	6922      	ldr	r2, [r4, #16]
 8000b38:	f423 5360 	bic.w	r3, r3, #14336	; 0x3800
 8000b3c:	ea43 03c2 	orr.w	r3, r3, r2, lsl #3
 8000b40:	606b      	str	r3, [r5, #4]
 8000b42:	f7ff ff9d 	bl	8000a80 <HAL_RCC_GetSysClockFreq>
 8000b46:	686b      	ldr	r3, [r5, #4]
 8000b48:	4a35      	ldr	r2, [pc, #212]	; (8000c20 <HAL_RCC_ClockConfig+0x12c>)
 8000b4a:	f3c3 1303 	ubfx	r3, r3, #4, #4
 8000b4e:	5cd3      	ldrb	r3, [r2, r3]
 8000b50:	40d8      	lsrs	r0, r3
 8000b52:	4b34      	ldr	r3, [pc, #208]	; (8000c24 <HAL_RCC_ClockConfig+0x130>)
 8000b54:	6018      	str	r0, [r3, #0]
 8000b56:	4b34      	ldr	r3, [pc, #208]	; (8000c28 <HAL_RCC_ClockConfig+0x134>)
 8000b58:	6818      	ldr	r0, [r3, #0]
 8000b5a:	f7ff fbfd 	bl	8000358 <HAL_InitTick>
 8000b5e:	2000      	movs	r0, #0
 8000b60:	e7ce      	b.n	8000b00 <HAL_RCC_ClockConfig+0xc>
 8000b62:	6813      	ldr	r3, [r2, #0]
 8000b64:	f023 0307 	bic.w	r3, r3, #7
 8000b68:	430b      	orrs	r3, r1
 8000b6a:	6013      	str	r3, [r2, #0]
 8000b6c:	6813      	ldr	r3, [r2, #0]
 8000b6e:	f003 0307 	and.w	r3, r3, #7
 8000b72:	428b      	cmp	r3, r1
 8000b74:	d1c3      	bne.n	8000afe <HAL_RCC_ClockConfig+0xa>
 8000b76:	e7cb      	b.n	8000b10 <HAL_RCC_ClockConfig+0x1c>
 8000b78:	4b28      	ldr	r3, [pc, #160]	; (8000c1c <HAL_RCC_ClockConfig+0x128>)
 8000b7a:	f011 0f04 	tst.w	r1, #4
 8000b7e:	bf1e      	ittt	ne
 8000b80:	685a      	ldrne	r2, [r3, #4]
 8000b82:	f442 62e0 	orrne.w	r2, r2, #1792	; 0x700
 8000b86:	605a      	strne	r2, [r3, #4]
 8000b88:	0708      	lsls	r0, r1, #28
 8000b8a:	bf42      	ittt	mi
 8000b8c:	685a      	ldrmi	r2, [r3, #4]
 8000b8e:	f442 5260 	orrmi.w	r2, r2, #14336	; 0x3800
 8000b92:	605a      	strmi	r2, [r3, #4]
 8000b94:	685a      	ldr	r2, [r3, #4]
 8000b96:	68a0      	ldr	r0, [r4, #8]
 8000b98:	f022 02f0 	bic.w	r2, r2, #240	; 0xf0
 8000b9c:	4302      	orrs	r2, r0
 8000b9e:	605a      	str	r2, [r3, #4]
 8000ba0:	e7b9      	b.n	8000b16 <HAL_RCC_ClockConfig+0x22>
 8000ba2:	6862      	ldr	r2, [r4, #4]
 8000ba4:	4e1d      	ldr	r6, [pc, #116]	; (8000c1c <HAL_RCC_ClockConfig+0x128>)
 8000ba6:	2a01      	cmp	r2, #1
 8000ba8:	6833      	ldr	r3, [r6, #0]
 8000baa:	d11a      	bne.n	8000be2 <HAL_RCC_ClockConfig+0xee>
 8000bac:	f413 3f00 	tst.w	r3, #131072	; 0x20000
 8000bb0:	d0a5      	beq.n	8000afe <HAL_RCC_ClockConfig+0xa>
 8000bb2:	6873      	ldr	r3, [r6, #4]
 8000bb4:	f241 3888 	movw	r8, #5000	; 0x1388
 8000bb8:	f023 0303 	bic.w	r3, r3, #3
 8000bbc:	4313      	orrs	r3, r2
 8000bbe:	6073      	str	r3, [r6, #4]
 8000bc0:	f7ff fc94 	bl	80004ec <HAL_GetTick>
 8000bc4:	4607      	mov	r7, r0
 8000bc6:	6873      	ldr	r3, [r6, #4]
 8000bc8:	6862      	ldr	r2, [r4, #4]
 8000bca:	f003 030c 	and.w	r3, r3, #12
 8000bce:	ebb3 0f82 	cmp.w	r3, r2, lsl #2
 8000bd2:	d0a2      	beq.n	8000b1a <HAL_RCC_ClockConfig+0x26>
 8000bd4:	f7ff fc8a 	bl	80004ec <HAL_GetTick>
 8000bd8:	1bc0      	subs	r0, r0, r7
 8000bda:	4540      	cmp	r0, r8
 8000bdc:	d9f3      	bls.n	8000bc6 <HAL_RCC_ClockConfig+0xd2>
 8000bde:	2003      	movs	r0, #3
 8000be0:	e78e      	b.n	8000b00 <HAL_RCC_ClockConfig+0xc>
 8000be2:	2a02      	cmp	r2, #2
 8000be4:	d102      	bne.n	8000bec <HAL_RCC_ClockConfig+0xf8>
 8000be6:	f013 7f00 	tst.w	r3, #33554432	; 0x2000000
 8000bea:	e7e1      	b.n	8000bb0 <HAL_RCC_ClockConfig+0xbc>
 8000bec:	f013 0f02 	tst.w	r3, #2
 8000bf0:	e7de      	b.n	8000bb0 <HAL_RCC_ClockConfig+0xbc>
 8000bf2:	6813      	ldr	r3, [r2, #0]
 8000bf4:	f023 0307 	bic.w	r3, r3, #7
 8000bf8:	432b      	orrs	r3, r5
 8000bfa:	6013      	str	r3, [r2, #0]
 8000bfc:	6813      	ldr	r3, [r2, #0]
 8000bfe:	f003 0307 	and.w	r3, r3, #7
 8000c02:	42ab      	cmp	r3, r5
 8000c04:	f47f af7b 	bne.w	8000afe <HAL_RCC_ClockConfig+0xa>
 8000c08:	e78d      	b.n	8000b26 <HAL_RCC_ClockConfig+0x32>
 8000c0a:	686b      	ldr	r3, [r5, #4]
 8000c0c:	68e1      	ldr	r1, [r4, #12]
 8000c0e:	f423 63e0 	bic.w	r3, r3, #1792	; 0x700
 8000c12:	430b      	orrs	r3, r1
 8000c14:	606b      	str	r3, [r5, #4]
 8000c16:	e78b      	b.n	8000b30 <HAL_RCC_ClockConfig+0x3c>
 8000c18:	40022000 	.word	0x40022000
 8000c1c:	40021000 	.word	0x40021000
 8000c20:	08002f20 	.word	0x08002f20
 8000c24:	20000000 	.word	0x20000000
 8000c28:	20000008 	.word	0x20000008

08000c2c <HAL_RCC_GetPCLK1Freq>:
 8000c2c:	4b04      	ldr	r3, [pc, #16]	; (8000c40 <HAL_RCC_GetPCLK1Freq+0x14>)
 8000c2e:	4a05      	ldr	r2, [pc, #20]	; (8000c44 <HAL_RCC_GetPCLK1Freq+0x18>)
 8000c30:	685b      	ldr	r3, [r3, #4]
 8000c32:	f3c3 2302 	ubfx	r3, r3, #8, #3
 8000c36:	5cd3      	ldrb	r3, [r2, r3]
 8000c38:	4a03      	ldr	r2, [pc, #12]	; (8000c48 <HAL_RCC_GetPCLK1Freq+0x1c>)
 8000c3a:	6810      	ldr	r0, [r2, #0]
 8000c3c:	40d8      	lsrs	r0, r3
 8000c3e:	4770      	bx	lr
 8000c40:	40021000 	.word	0x40021000
 8000c44:	08002f30 	.word	0x08002f30
 8000c48:	20000000 	.word	0x20000000

08000c4c <HAL_RCC_GetPCLK2Freq>:
 8000c4c:	4b04      	ldr	r3, [pc, #16]	; (8000c60 <HAL_RCC_GetPCLK2Freq+0x14>)
 8000c4e:	4a05      	ldr	r2, [pc, #20]	; (8000c64 <HAL_RCC_GetPCLK2Freq+0x18>)
 8000c50:	685b      	ldr	r3, [r3, #4]
 8000c52:	f3c3 23c2 	ubfx	r3, r3, #11, #3
 8000c56:	5cd3      	ldrb	r3, [r2, r3]
 8000c58:	4a03      	ldr	r2, [pc, #12]	; (8000c68 <HAL_RCC_GetPCLK2Freq+0x1c>)
 8000c5a:	6810      	ldr	r0, [r2, #0]
 8000c5c:	40d8      	lsrs	r0, r3
 8000c5e:	4770      	bx	lr
 8000c60:	40021000 	.word	0x40021000
 8000c64:	08002f30 	.word	0x08002f30
 8000c68:	20000000 	.word	0x20000000

08000c6c <HAL_RCC_GetClockConfig>:
 8000c6c:	230f      	movs	r3, #15
 8000c6e:	6003      	str	r3, [r0, #0]
 8000c70:	4b0b      	ldr	r3, [pc, #44]	; (8000ca0 <HAL_RCC_GetClockConfig+0x34>)
 8000c72:	685a      	ldr	r2, [r3, #4]
 8000c74:	f002 0203 	and.w	r2, r2, #3
 8000c78:	6042      	str	r2, [r0, #4]
 8000c7a:	685a      	ldr	r2, [r3, #4]
 8000c7c:	f002 02f0 	and.w	r2, r2, #240	; 0xf0
 8000c80:	6082      	str	r2, [r0, #8]
 8000c82:	685a      	ldr	r2, [r3, #4]
 8000c84:	f402 62e0 	and.w	r2, r2, #1792	; 0x700
 8000c88:	60c2      	str	r2, [r0, #12]
 8000c8a:	685b      	ldr	r3, [r3, #4]
 8000c8c:	08db      	lsrs	r3, r3, #3
 8000c8e:	f403 63e0 	and.w	r3, r3, #1792	; 0x700
 8000c92:	6103      	str	r3, [r0, #16]
 8000c94:	4b03      	ldr	r3, [pc, #12]	; (8000ca4 <HAL_RCC_GetClockConfig+0x38>)
 8000c96:	681b      	ldr	r3, [r3, #0]
 8000c98:	f003 0307 	and.w	r3, r3, #7
 8000c9c:	600b      	str	r3, [r1, #0]
 8000c9e:	4770      	bx	lr
 8000ca0:	40021000 	.word	0x40021000
 8000ca4:	40022000 	.word	0x40022000

08000ca8 <HAL_TIM_Base_MspInit>:
 8000ca8:	4770      	bx	lr
	...

08000cac <HAL_TIM_Base_Start_IT>:
 8000cac:	f890 303d 	ldrb.w	r3, [r0, #61]	; 0x3d
 8000cb0:	2b01      	cmp	r3, #1
 8000cb2:	d11c      	bne.n	8000cee <HAL_TIM_Base_Start_IT+0x42>
 8000cb4:	2302      	movs	r3, #2
 8000cb6:	f880 303d 	strb.w	r3, [r0, #61]	; 0x3d
 8000cba:	6803      	ldr	r3, [r0, #0]
 8000cbc:	68da      	ldr	r2, [r3, #12]
 8000cbe:	f042 0201 	orr.w	r2, r2, #1
 8000cc2:	60da      	str	r2, [r3, #12]
 8000cc4:	4a0b      	ldr	r2, [pc, #44]	; (8000cf4 <HAL_TIM_Base_Start_IT+0x48>)
 8000cc6:	4293      	cmp	r3, r2
 8000cc8:	d006      	beq.n	8000cd8 <HAL_TIM_Base_Start_IT+0x2c>
 8000cca:	f1b3 4f80 	cmp.w	r3, #1073741824	; 0x40000000
 8000cce:	d003      	beq.n	8000cd8 <HAL_TIM_Base_Start_IT+0x2c>
 8000cd0:	f5a2 3294 	sub.w	r2, r2, #75776	; 0x12800
 8000cd4:	4293      	cmp	r3, r2
 8000cd6:	d104      	bne.n	8000ce2 <HAL_TIM_Base_Start_IT+0x36>
 8000cd8:	689a      	ldr	r2, [r3, #8]
 8000cda:	f002 0207 	and.w	r2, r2, #7
 8000cde:	2a06      	cmp	r2, #6
 8000ce0:	d003      	beq.n	8000cea <HAL_TIM_Base_Start_IT+0x3e>
 8000ce2:	681a      	ldr	r2, [r3, #0]
 8000ce4:	f042 0201 	orr.w	r2, r2, #1
 8000ce8:	601a      	str	r2, [r3, #0]
 8000cea:	2000      	movs	r0, #0
 8000cec:	4770      	bx	lr
 8000cee:	2001      	movs	r0, #1
 8000cf0:	4770      	bx	lr
 8000cf2:	bf00      	nop
 8000cf4:	40012c00 	.word	0x40012c00

08000cf8 <HAL_TIM_OC_DelayElapsedCallback>:
 8000cf8:	4770      	bx	lr

08000cfa <HAL_TIM_IC_CaptureCallback>:
 8000cfa:	4770      	bx	lr

08000cfc <HAL_TIM_PWM_PulseFinishedCallback>:
 8000cfc:	4770      	bx	lr

08000cfe <HAL_TIM_TriggerCallback>:
 8000cfe:	4770      	bx	lr

08000d00 <HAL_TIM_IRQHandler>:
 8000d00:	6803      	ldr	r3, [r0, #0]
 8000d02:	b510      	push	{r4, lr}
 8000d04:	691a      	ldr	r2, [r3, #16]
 8000d06:	4604      	mov	r4, r0
 8000d08:	0791      	lsls	r1, r2, #30
 8000d0a:	d50e      	bpl.n	8000d2a <HAL_TIM_IRQHandler+0x2a>
 8000d0c:	68da      	ldr	r2, [r3, #12]
 8000d0e:	0792      	lsls	r2, r2, #30
 8000d10:	d50b      	bpl.n	8000d2a <HAL_TIM_IRQHandler+0x2a>
 8000d12:	f06f 0202 	mvn.w	r2, #2
 8000d16:	611a      	str	r2, [r3, #16]
 8000d18:	2201      	movs	r2, #1
 8000d1a:	7702      	strb	r2, [r0, #28]
 8000d1c:	699b      	ldr	r3, [r3, #24]
 8000d1e:	079b      	lsls	r3, r3, #30
 8000d20:	d077      	beq.n	8000e12 <HAL_TIM_IRQHandler+0x112>
 8000d22:	f7ff ffea 	bl	8000cfa <HAL_TIM_IC_CaptureCallback>
 8000d26:	2300      	movs	r3, #0
 8000d28:	7723      	strb	r3, [r4, #28]
 8000d2a:	6823      	ldr	r3, [r4, #0]
 8000d2c:	691a      	ldr	r2, [r3, #16]
 8000d2e:	0750      	lsls	r0, r2, #29
 8000d30:	d510      	bpl.n	8000d54 <HAL_TIM_IRQHandler+0x54>
 8000d32:	68da      	ldr	r2, [r3, #12]
 8000d34:	0751      	lsls	r1, r2, #29
 8000d36:	d50d      	bpl.n	8000d54 <HAL_TIM_IRQHandler+0x54>
 8000d38:	f06f 0204 	mvn.w	r2, #4
 8000d3c:	611a      	str	r2, [r3, #16]
 8000d3e:	2202      	movs	r2, #2
 8000d40:	7722      	strb	r2, [r4, #28]
 8000d42:	699b      	ldr	r3, [r3, #24]
 8000d44:	4620      	mov	r0, r4
 8000d46:	f413 7f40 	tst.w	r3, #768	; 0x300
 8000d4a:	d068      	beq.n	8000e1e <HAL_TIM_IRQHandler+0x11e>
 8000d4c:	f7ff ffd5 	bl	8000cfa <HAL_TIM_IC_CaptureCallback>
 8000d50:	2300      	movs	r3, #0
 8000d52:	7723      	strb	r3, [r4, #28]
 8000d54:	6823      	ldr	r3, [r4, #0]
 8000d56:	691a      	ldr	r2, [r3, #16]
 8000d58:	0712      	lsls	r2, r2, #28
 8000d5a:	d50f      	bpl.n	8000d7c <HAL_TIM_IRQHandler+0x7c>
 8000d5c:	68da      	ldr	r2, [r3, #12]
 8000d5e:	0710      	lsls	r0, r2, #28
 8000d60:	d50c      	bpl.n	8000d7c <HAL_TIM_IRQHandler+0x7c>
 8000d62:	f06f 0208 	mvn.w	r2, #8
 8000d66:	611a      	str	r2, [r3, #16]
 8000d68:	2204      	movs	r2, #4
 8000d6a:	7722      	strb	r2, [r4, #28]
 8000d6c:	69db      	ldr	r3, [r3, #28]
 8000d6e:	4620      	mov	r0, r4
 8000d70:	0799      	lsls	r1, r3, #30
 8000d72:	d05a      	beq.n	8000e2a <HAL_TIM_IRQHandler+0x12a>
 8000d74:	f7ff ffc1 	bl	8000cfa <HAL_TIM_IC_CaptureCallback>
 8000d78:	2300      	movs	r3, #0
 8000d7a:	7723      	strb	r3, [r4, #28]
 8000d7c:	6823      	ldr	r3, [r4, #0]
 8000d7e:	691a      	ldr	r2, [r3, #16]
 8000d80:	06d2      	lsls	r2, r2, #27
 8000d82:	d510      	bpl.n	8000da6 <HAL_TIM_IRQHandler+0xa6>
 8000d84:	68da      	ldr	r2, [r3, #12]
 8000d86:	06d0      	lsls	r0, r2, #27
 8000d88:	d50d      	bpl.n	8000da6 <HAL_TIM_IRQHandler+0xa6>
 8000d8a:	f06f 0210 	mvn.w	r2, #16
 8000d8e:	611a      	str	r2, [r3, #16]
 8000d90:	2208      	movs	r2, #8
 8000d92:	7722      	strb	r2, [r4, #28]
 8000d94:	69db      	ldr	r3, [r3, #28]
 8000d96:	4620      	mov	r0, r4
 8000d98:	f413 7f40 	tst.w	r3, #768	; 0x300
 8000d9c:	d04b      	beq.n	8000e36 <HAL_TIM_IRQHandler+0x136>
 8000d9e:	f7ff ffac 	bl	8000cfa <HAL_TIM_IC_CaptureCallback>
 8000da2:	2300      	movs	r3, #0
 8000da4:	7723      	strb	r3, [r4, #28]
 8000da6:	6823      	ldr	r3, [r4, #0]
 8000da8:	691a      	ldr	r2, [r3, #16]
 8000daa:	07d1      	lsls	r1, r2, #31
 8000dac:	d508      	bpl.n	8000dc0 <HAL_TIM_IRQHandler+0xc0>
 8000dae:	68da      	ldr	r2, [r3, #12]
 8000db0:	07d2      	lsls	r2, r2, #31
 8000db2:	d505      	bpl.n	8000dc0 <HAL_TIM_IRQHandler+0xc0>
 8000db4:	f06f 0201 	mvn.w	r2, #1
 8000db8:	4620      	mov	r0, r4
 8000dba:	611a      	str	r2, [r3, #16]
 8000dbc:	f7ff fa50 	bl	8000260 <HAL_TIM_PeriodElapsedCallback>
 8000dc0:	6823      	ldr	r3, [r4, #0]
 8000dc2:	691a      	ldr	r2, [r3, #16]
 8000dc4:	0610      	lsls	r0, r2, #24
 8000dc6:	d508      	bpl.n	8000dda <HAL_TIM_IRQHandler+0xda>
 8000dc8:	68da      	ldr	r2, [r3, #12]
 8000dca:	0611      	lsls	r1, r2, #24
 8000dcc:	d505      	bpl.n	8000dda <HAL_TIM_IRQHandler+0xda>
 8000dce:	f06f 0280 	mvn.w	r2, #128	; 0x80
 8000dd2:	4620      	mov	r0, r4
 8000dd4:	611a      	str	r2, [r3, #16]
 8000dd6:	f000 f894 	bl	8000f02 <HAL_TIMEx_BreakCallback>
 8000dda:	6823      	ldr	r3, [r4, #0]
 8000ddc:	691a      	ldr	r2, [r3, #16]
 8000dde:	0652      	lsls	r2, r2, #25
 8000de0:	d508      	bpl.n	8000df4 <HAL_TIM_IRQHandler+0xf4>
 8000de2:	68da      	ldr	r2, [r3, #12]
 8000de4:	0650      	lsls	r0, r2, #25
 8000de6:	d505      	bpl.n	8000df4 <HAL_TIM_IRQHandler+0xf4>
 8000de8:	f06f 0240 	mvn.w	r2, #64	; 0x40
 8000dec:	4620      	mov	r0, r4
 8000dee:	611a      	str	r2, [r3, #16]
 8000df0:	f7ff ff85 	bl	8000cfe <HAL_TIM_TriggerCallback>
 8000df4:	6823      	ldr	r3, [r4, #0]
 8000df6:	691a      	ldr	r2, [r3, #16]
 8000df8:	0691      	lsls	r1, r2, #26
 8000dfa:	d522      	bpl.n	8000e42 <HAL_TIM_IRQHandler+0x142>
 8000dfc:	68da      	ldr	r2, [r3, #12]
 8000dfe:	0692      	lsls	r2, r2, #26
 8000e00:	d51f      	bpl.n	8000e42 <HAL_TIM_IRQHandler+0x142>
 8000e02:	f06f 0220 	mvn.w	r2, #32
 8000e06:	4620      	mov	r0, r4
 8000e08:	e8bd 4010 	ldmia.w	sp!, {r4, lr}
 8000e0c:	611a      	str	r2, [r3, #16]
 8000e0e:	f000 b877 	b.w	8000f00 <HAL_TIMEx_CommutCallback>
 8000e12:	f7ff ff71 	bl	8000cf8 <HAL_TIM_OC_DelayElapsedCallback>
 8000e16:	4620      	mov	r0, r4
 8000e18:	f7ff ff70 	bl	8000cfc <HAL_TIM_PWM_PulseFinishedCallback>
 8000e1c:	e783      	b.n	8000d26 <HAL_TIM_IRQHandler+0x26>
 8000e1e:	f7ff ff6b 	bl	8000cf8 <HAL_TIM_OC_DelayElapsedCallback>
 8000e22:	4620      	mov	r0, r4
 8000e24:	f7ff ff6a 	bl	8000cfc <HAL_TIM_PWM_PulseFinishedCallback>
 8000e28:	e792      	b.n	8000d50 <HAL_TIM_IRQHandler+0x50>
 8000e2a:	f7ff ff65 	bl	8000cf8 <HAL_TIM_OC_DelayElapsedCallback>
 8000e2e:	4620      	mov	r0, r4
 8000e30:	f7ff ff64 	bl	8000cfc <HAL_TIM_PWM_PulseFinishedCallback>
 8000e34:	e7a0      	b.n	8000d78 <HAL_TIM_IRQHandler+0x78>
 8000e36:	f7ff ff5f 	bl	8000cf8 <HAL_TIM_OC_DelayElapsedCallback>
 8000e3a:	4620      	mov	r0, r4
 8000e3c:	f7ff ff5e 	bl	8000cfc <HAL_TIM_PWM_PulseFinishedCallback>
 8000e40:	e7af      	b.n	8000da2 <HAL_TIM_IRQHandler+0xa2>
 8000e42:	bd10      	pop	{r4, pc}

08000e44 <TIM_Base_SetConfig>:
 8000e44:	4a16      	ldr	r2, [pc, #88]	; (8000ea0 <TIM_Base_SetConfig+0x5c>)
 8000e46:	b510      	push	{r4, lr}
 8000e48:	4290      	cmp	r0, r2
 8000e4a:	6803      	ldr	r3, [r0, #0]
 8000e4c:	d005      	beq.n	8000e5a <TIM_Base_SetConfig+0x16>
 8000e4e:	f1b0 4f80 	cmp.w	r0, #1073741824	; 0x40000000
 8000e52:	d002      	beq.n	8000e5a <TIM_Base_SetConfig+0x16>
 8000e54:	4c13      	ldr	r4, [pc, #76]	; (8000ea4 <TIM_Base_SetConfig+0x60>)
 8000e56:	42a0      	cmp	r0, r4
 8000e58:	d110      	bne.n	8000e7c <TIM_Base_SetConfig+0x38>
 8000e5a:	684c      	ldr	r4, [r1, #4]
 8000e5c:	f023 0370 	bic.w	r3, r3, #112	; 0x70
 8000e60:	4290      	cmp	r0, r2
 8000e62:	ea43 0304 	orr.w	r3, r3, r4
 8000e66:	d005      	beq.n	8000e74 <TIM_Base_SetConfig+0x30>
 8000e68:	f1b0 4f80 	cmp.w	r0, #1073741824	; 0x40000000
 8000e6c:	d002      	beq.n	8000e74 <TIM_Base_SetConfig+0x30>
 8000e6e:	4a0d      	ldr	r2, [pc, #52]	; (8000ea4 <TIM_Base_SetConfig+0x60>)
 8000e70:	4290      	cmp	r0, r2
 8000e72:	d103      	bne.n	8000e7c <TIM_Base_SetConfig+0x38>
 8000e74:	68ca      	ldr	r2, [r1, #12]
 8000e76:	f423 7340 	bic.w	r3, r3, #768	; 0x300
 8000e7a:	4313      	orrs	r3, r2
 8000e7c:	694a      	ldr	r2, [r1, #20]
 8000e7e:	f023 0380 	bic.w	r3, r3, #128	; 0x80
 8000e82:	4313      	orrs	r3, r2
 8000e84:	6003      	str	r3, [r0, #0]
 8000e86:	688b      	ldr	r3, [r1, #8]
 8000e88:	62c3      	str	r3, [r0, #44]	; 0x2c
 8000e8a:	680b      	ldr	r3, [r1, #0]
 8000e8c:	6283      	str	r3, [r0, #40]	; 0x28
 8000e8e:	4b04      	ldr	r3, [pc, #16]	; (8000ea0 <TIM_Base_SetConfig+0x5c>)
 8000e90:	4298      	cmp	r0, r3
 8000e92:	bf04      	itt	eq
 8000e94:	690b      	ldreq	r3, [r1, #16]
 8000e96:	6303      	streq	r3, [r0, #48]	; 0x30
 8000e98:	2301      	movs	r3, #1
 8000e9a:	6143      	str	r3, [r0, #20]
 8000e9c:	bd10      	pop	{r4, pc}
 8000e9e:	bf00      	nop
 8000ea0:	40012c00 	.word	0x40012c00
 8000ea4:	40000400 	.word	0x40000400

08000ea8 <HAL_TIM_Base_Init>:
 8000ea8:	b510      	push	{r4, lr}
 8000eaa:	4604      	mov	r4, r0
 8000eac:	b330      	cbz	r0, 8000efc <HAL_TIM_Base_Init+0x54>
 8000eae:	f890 303d 	ldrb.w	r3, [r0, #61]	; 0x3d
 8000eb2:	f003 02ff 	and.w	r2, r3, #255	; 0xff
 8000eb6:	b91b      	cbnz	r3, 8000ec0 <HAL_TIM_Base_Init+0x18>
 8000eb8:	f880 203c 	strb.w	r2, [r0, #60]	; 0x3c
 8000ebc:	f7ff fef4 	bl	8000ca8 <HAL_TIM_Base_MspInit>
 8000ec0:	2302      	movs	r3, #2
 8000ec2:	6820      	ldr	r0, [r4, #0]
 8000ec4:	f884 303d 	strb.w	r3, [r4, #61]	; 0x3d
 8000ec8:	1d21      	adds	r1, r4, #4
 8000eca:	f7ff ffbb 	bl	8000e44 <TIM_Base_SetConfig>
 8000ece:	2301      	movs	r3, #1
 8000ed0:	2000      	movs	r0, #0
 8000ed2:	f884 3046 	strb.w	r3, [r4, #70]	; 0x46
 8000ed6:	f884 303e 	strb.w	r3, [r4, #62]	; 0x3e
 8000eda:	f884 303f 	strb.w	r3, [r4, #63]	; 0x3f
 8000ede:	f884 3040 	strb.w	r3, [r4, #64]	; 0x40
 8000ee2:	f884 3041 	strb.w	r3, [r4, #65]	; 0x41
 8000ee6:	f884 3042 	strb.w	r3, [r4, #66]	; 0x42
 8000eea:	f884 3043 	strb.w	r3, [r4, #67]	; 0x43
 8000eee:	f884 3044 	strb.w	r3, [r4, #68]	; 0x44
 8000ef2:	f884 3045 	strb.w	r3, [r4, #69]	; 0x45
 8000ef6:	f884 303d 	strb.w	r3, [r4, #61]	; 0x3d
 8000efa:	bd10      	pop	{r4, pc}
 8000efc:	2001      	movs	r0, #1
 8000efe:	e7fc      	b.n	8000efa <HAL_TIM_Base_Init+0x52>

08000f00 <HAL_TIMEx_CommutCallback>:
 8000f00:	4770      	bx	lr

08000f02 <HAL_TIMEx_BreakCallback>:
 8000f02:	4770      	bx	lr

08000f04 <UART_SetConfig>:
 8000f04:	b510      	push	{r4, lr}
 8000f06:	4604      	mov	r4, r0
 8000f08:	6803      	ldr	r3, [r0, #0]
 8000f0a:	68c1      	ldr	r1, [r0, #12]
 8000f0c:	691a      	ldr	r2, [r3, #16]
 8000f0e:	f422 5240 	bic.w	r2, r2, #12288	; 0x3000
 8000f12:	430a      	orrs	r2, r1
 8000f14:	611a      	str	r2, [r3, #16]
 8000f16:	6882      	ldr	r2, [r0, #8]
 8000f18:	6900      	ldr	r0, [r0, #16]
 8000f1a:	68d9      	ldr	r1, [r3, #12]
 8000f1c:	4302      	orrs	r2, r0
 8000f1e:	6960      	ldr	r0, [r4, #20]
 8000f20:	f421 51b0 	bic.w	r1, r1, #5632	; 0x1600
 8000f24:	f021 010c 	bic.w	r1, r1, #12
 8000f28:	4302      	orrs	r2, r0
 8000f2a:	430a      	orrs	r2, r1
 8000f2c:	60da      	str	r2, [r3, #12]
 8000f2e:	695a      	ldr	r2, [r3, #20]
 8000f30:	69a1      	ldr	r1, [r4, #24]
 8000f32:	f422 7240 	bic.w	r2, r2, #768	; 0x300
 8000f36:	430a      	orrs	r2, r1
 8000f38:	615a      	str	r2, [r3, #20]
 8000f3a:	4a0e      	ldr	r2, [pc, #56]	; (8000f74 <UART_SetConfig+0x70>)
 8000f3c:	4293      	cmp	r3, r2
 8000f3e:	d115      	bne.n	8000f6c <UART_SetConfig+0x68>
 8000f40:	f7ff fe84 	bl	8000c4c <HAL_RCC_GetPCLK2Freq>
 8000f44:	2319      	movs	r3, #25
 8000f46:	4343      	muls	r3, r0
 8000f48:	6862      	ldr	r2, [r4, #4]
 8000f4a:	6820      	ldr	r0, [r4, #0]
 8000f4c:	0092      	lsls	r2, r2, #2
 8000f4e:	fbb3 f3f2 	udiv	r3, r3, r2
 8000f52:	2264      	movs	r2, #100	; 0x64
 8000f54:	fbb3 f1f2 	udiv	r1, r3, r2
 8000f58:	fb02 3311 	mls	r3, r2, r1, r3
 8000f5c:	011b      	lsls	r3, r3, #4
 8000f5e:	3332      	adds	r3, #50	; 0x32
 8000f60:	fbb3 f3f2 	udiv	r3, r3, r2
 8000f64:	eb03 1301 	add.w	r3, r3, r1, lsl #4
 8000f68:	6083      	str	r3, [r0, #8]
 8000f6a:	bd10      	pop	{r4, pc}
 8000f6c:	f7ff fe5e 	bl	8000c2c <HAL_RCC_GetPCLK1Freq>
 8000f70:	e7e8      	b.n	8000f44 <UART_SetConfig+0x40>
 8000f72:	bf00      	nop
 8000f74:	40013800 	.word	0x40013800

08000f78 <UART_WaitOnFlagUntilTimeout.constprop.0>:
 8000f78:	b5f8      	push	{r3, r4, r5, r6, r7, lr}
 8000f7a:	4604      	mov	r4, r0
 8000f7c:	460e      	mov	r6, r1
 8000f7e:	4617      	mov	r7, r2
 8000f80:	461d      	mov	r5, r3
 8000f82:	6822      	ldr	r2, [r4, #0]
 8000f84:	6813      	ldr	r3, [r2, #0]
 8000f86:	ea36 0303 	bics.w	r3, r6, r3
 8000f8a:	d101      	bne.n	8000f90 <UART_WaitOnFlagUntilTimeout.constprop.0+0x18>
 8000f8c:	2000      	movs	r0, #0
 8000f8e:	e014      	b.n	8000fba <UART_WaitOnFlagUntilTimeout.constprop.0+0x42>
 8000f90:	1c6b      	adds	r3, r5, #1
 8000f92:	d0f7      	beq.n	8000f84 <UART_WaitOnFlagUntilTimeout.constprop.0+0xc>
 8000f94:	b995      	cbnz	r5, 8000fbc <UART_WaitOnFlagUntilTimeout.constprop.0+0x44>
 8000f96:	6823      	ldr	r3, [r4, #0]
 8000f98:	2003      	movs	r0, #3
 8000f9a:	68da      	ldr	r2, [r3, #12]
 8000f9c:	f422 72d0 	bic.w	r2, r2, #416	; 0x1a0
 8000fa0:	60da      	str	r2, [r3, #12]
 8000fa2:	695a      	ldr	r2, [r3, #20]
 8000fa4:	f022 0201 	bic.w	r2, r2, #1
 8000fa8:	615a      	str	r2, [r3, #20]
 8000faa:	2320      	movs	r3, #32
 8000fac:	f884 303d 	strb.w	r3, [r4, #61]	; 0x3d
 8000fb0:	f884 303e 	strb.w	r3, [r4, #62]	; 0x3e
 8000fb4:	2300      	movs	r3, #0
 8000fb6:	f884 303c 	strb.w	r3, [r4, #60]	; 0x3c
 8000fba:	bdf8      	pop	{r3, r4, r5, r6, r7, pc}
 8000fbc:	f7ff fa96 	bl	80004ec <HAL_GetTick>
 8000fc0:	1bc0      	subs	r0, r0, r7
 8000fc2:	4285      	cmp	r5, r0
 8000fc4:	d2dd      	bcs.n	8000f82 <UART_WaitOnFlagUntilTimeout.constprop.0+0xa>
 8000fc6:	e7e6      	b.n	8000f96 <UART_WaitOnFlagUntilTimeout.constprop.0+0x1e>

08000fc8 <HAL_UART_Init>:
 8000fc8:	b510      	push	{r4, lr}
 8000fca:	4604      	mov	r4, r0
 8000fcc:	b340      	cbz	r0, 8001020 <HAL_UART_Init+0x58>
 8000fce:	f890 303d 	ldrb.w	r3, [r0, #61]	; 0x3d
 8000fd2:	f003 02ff 	and.w	r2, r3, #255	; 0xff
 8000fd6:	b91b      	cbnz	r3, 8000fe0 <HAL_UART_Init+0x18>
 8000fd8:	f880 203c 	strb.w	r2, [r0, #60]	; 0x3c
 8000fdc:	f7ff f980 	bl	80002e0 <HAL_UART_MspInit>
 8000fe0:	2324      	movs	r3, #36	; 0x24
 8000fe2:	6822      	ldr	r2, [r4, #0]
 8000fe4:	f884 303d 	strb.w	r3, [r4, #61]	; 0x3d
 8000fe8:	68d3      	ldr	r3, [r2, #12]
 8000fea:	4620      	mov	r0, r4
 8000fec:	f423 5300 	bic.w	r3, r3, #8192	; 0x2000
 8000ff0:	60d3      	str	r3, [r2, #12]
 8000ff2:	f7ff ff87 	bl	8000f04 <UART_SetConfig>
 8000ff6:	6823      	ldr	r3, [r4, #0]
 8000ff8:	2000      	movs	r0, #0
 8000ffa:	691a      	ldr	r2, [r3, #16]
 8000ffc:	f422 4290 	bic.w	r2, r2, #18432	; 0x4800
 8001000:	611a      	str	r2, [r3, #16]
 8001002:	695a      	ldr	r2, [r3, #20]
 8001004:	f022 022a 	bic.w	r2, r2, #42	; 0x2a
 8001008:	615a      	str	r2, [r3, #20]
 800100a:	68da      	ldr	r2, [r3, #12]
 800100c:	f442 5200 	orr.w	r2, r2, #8192	; 0x2000
 8001010:	60da      	str	r2, [r3, #12]
 8001012:	2320      	movs	r3, #32
 8001014:	6420      	str	r0, [r4, #64]	; 0x40
 8001016:	f884 303d 	strb.w	r3, [r4, #61]	; 0x3d
 800101a:	f884 303e 	strb.w	r3, [r4, #62]	; 0x3e
 800101e:	bd10      	pop	{r4, pc}
 8001020:	2001      	movs	r0, #1
 8001022:	e7fc      	b.n	800101e <HAL_UART_Init+0x56>

08001024 <HAL_UART_Transmit>:
 8001024:	e92d 43f8 	stmdb	sp!, {r3, r4, r5, r6, r7, r8, r9, lr}
 8001028:	4699      	mov	r9, r3
 800102a:	f890 303d 	ldrb.w	r3, [r0, #61]	; 0x3d
 800102e:	4604      	mov	r4, r0
 8001030:	2b20      	cmp	r3, #32
 8001032:	460e      	mov	r6, r1
 8001034:	4617      	mov	r7, r2
 8001036:	d148      	bne.n	80010ca <HAL_UART_Transmit+0xa6>
 8001038:	2900      	cmp	r1, #0
 800103a:	d044      	beq.n	80010c6 <HAL_UART_Transmit+0xa2>
 800103c:	2a00      	cmp	r2, #0
 800103e:	d042      	beq.n	80010c6 <HAL_UART_Transmit+0xa2>
 8001040:	f890 303c 	ldrb.w	r3, [r0, #60]	; 0x3c
 8001044:	2b01      	cmp	r3, #1
 8001046:	d040      	beq.n	80010ca <HAL_UART_Transmit+0xa6>
 8001048:	2301      	movs	r3, #1
 800104a:	2500      	movs	r5, #0
 800104c:	f880 303c 	strb.w	r3, [r0, #60]	; 0x3c
 8001050:	2321      	movs	r3, #33	; 0x21
 8001052:	6405      	str	r5, [r0, #64]	; 0x40
 8001054:	f880 303d 	strb.w	r3, [r0, #61]	; 0x3d
 8001058:	f7ff fa48 	bl	80004ec <HAL_GetTick>
 800105c:	68a3      	ldr	r3, [r4, #8]
 800105e:	4680      	mov	r8, r0
 8001060:	f5b3 5f80 	cmp.w	r3, #4096	; 0x1000
 8001064:	84a7      	strh	r7, [r4, #36]	; 0x24
 8001066:	84e7      	strh	r7, [r4, #38]	; 0x26
 8001068:	d103      	bne.n	8001072 <HAL_UART_Transmit+0x4e>
 800106a:	6923      	ldr	r3, [r4, #16]
 800106c:	b90b      	cbnz	r3, 8001072 <HAL_UART_Transmit+0x4e>
 800106e:	4635      	mov	r5, r6
 8001070:	461e      	mov	r6, r3
 8001072:	2300      	movs	r3, #0
 8001074:	f884 303c 	strb.w	r3, [r4, #60]	; 0x3c
 8001078:	8ce3      	ldrh	r3, [r4, #38]	; 0x26
 800107a:	b29b      	uxth	r3, r3
 800107c:	b953      	cbnz	r3, 8001094 <HAL_UART_Transmit+0x70>
 800107e:	464b      	mov	r3, r9
 8001080:	4642      	mov	r2, r8
 8001082:	2140      	movs	r1, #64	; 0x40
 8001084:	4620      	mov	r0, r4
 8001086:	f7ff ff77 	bl	8000f78 <UART_WaitOnFlagUntilTimeout.constprop.0>
 800108a:	b950      	cbnz	r0, 80010a2 <HAL_UART_Transmit+0x7e>
 800108c:	2320      	movs	r3, #32
 800108e:	f884 303d 	strb.w	r3, [r4, #61]	; 0x3d
 8001092:	e007      	b.n	80010a4 <HAL_UART_Transmit+0x80>
 8001094:	464b      	mov	r3, r9
 8001096:	4642      	mov	r2, r8
 8001098:	2180      	movs	r1, #128	; 0x80
 800109a:	4620      	mov	r0, r4
 800109c:	f7ff ff6c 	bl	8000f78 <UART_WaitOnFlagUntilTimeout.constprop.0>
 80010a0:	b110      	cbz	r0, 80010a8 <HAL_UART_Transmit+0x84>
 80010a2:	2003      	movs	r0, #3
 80010a4:	e8bd 83f8 	ldmia.w	sp!, {r3, r4, r5, r6, r7, r8, r9, pc}
 80010a8:	6822      	ldr	r2, [r4, #0]
 80010aa:	b94e      	cbnz	r6, 80010c0 <HAL_UART_Transmit+0x9c>
 80010ac:	f835 3b02 	ldrh.w	r3, [r5], #2
 80010b0:	f3c3 0308 	ubfx	r3, r3, #0, #9
 80010b4:	6053      	str	r3, [r2, #4]
 80010b6:	8ce1      	ldrh	r1, [r4, #38]	; 0x26
 80010b8:	3901      	subs	r1, #1
 80010ba:	b289      	uxth	r1, r1
 80010bc:	84e1      	strh	r1, [r4, #38]	; 0x26
 80010be:	e7db      	b.n	8001078 <HAL_UART_Transmit+0x54>
 80010c0:	f816 3b01 	ldrb.w	r3, [r6], #1
 80010c4:	e7f6      	b.n	80010b4 <HAL_UART_Transmit+0x90>
 80010c6:	2001      	movs	r0, #1
 80010c8:	e7ec      	b.n	80010a4 <HAL_UART_Transmit+0x80>
 80010ca:	2002      	movs	r0, #2
 80010cc:	e7ea      	b.n	80010a4 <HAL_UART_Transmit+0x80>
	...

080010d0 <osKernelInitialize>:
 80010d0:	f3ef 8305 	mrs	r3, IPSR
 80010d4:	b113      	cbz	r3, 80010dc <osKernelInitialize+0xc>
 80010d6:	f06f 0005 	mvn.w	r0, #5
 80010da:	4770      	bx	lr
 80010dc:	f3ef 8310 	mrs	r3, PRIMASK
 80010e0:	2b00      	cmp	r3, #0
 80010e2:	d1f8      	bne.n	80010d6 <osKernelInitialize+0x6>
 80010e4:	4b07      	ldr	r3, [pc, #28]	; (8001104 <osKernelInitialize+0x34>)
 80010e6:	6818      	ldr	r0, [r3, #0]
 80010e8:	2802      	cmp	r0, #2
 80010ea:	d106      	bne.n	80010fa <osKernelInitialize+0x2a>
 80010ec:	f3ef 8311 	mrs	r3, BASEPRI
 80010f0:	2b00      	cmp	r3, #0
 80010f2:	d1f0      	bne.n	80010d6 <osKernelInitialize+0x6>
 80010f4:	f04f 30ff 	mov.w	r0, #4294967295
 80010f8:	4770      	bx	lr
 80010fa:	2800      	cmp	r0, #0
 80010fc:	d1fa      	bne.n	80010f4 <osKernelInitialize+0x24>
 80010fe:	2201      	movs	r2, #1
 8001100:	601a      	str	r2, [r3, #0]
 8001102:	4770      	bx	lr
 8001104:	200003e8 	.word	0x200003e8

08001108 <osKernelStart>:
 8001108:	b510      	push	{r4, lr}
 800110a:	f3ef 8305 	mrs	r3, IPSR
 800110e:	b113      	cbz	r3, 8001116 <osKernelStart+0xe>
 8001110:	f06f 0005 	mvn.w	r0, #5
 8001114:	bd10      	pop	{r4, pc}
 8001116:	f3ef 8410 	mrs	r4, PRIMASK
 800111a:	2c00      	cmp	r4, #0
 800111c:	d1f8      	bne.n	8001110 <osKernelStart+0x8>
 800111e:	4b09      	ldr	r3, [pc, #36]	; (8001144 <osKernelStart+0x3c>)
 8001120:	681a      	ldr	r2, [r3, #0]
 8001122:	2a02      	cmp	r2, #2
 8001124:	d106      	bne.n	8001134 <osKernelStart+0x2c>
 8001126:	f3ef 8311 	mrs	r3, BASEPRI
 800112a:	2b00      	cmp	r3, #0
 800112c:	d1f0      	bne.n	8001110 <osKernelStart+0x8>
 800112e:	f04f 30ff 	mov.w	r0, #4294967295
 8001132:	e7ef      	b.n	8001114 <osKernelStart+0xc>
 8001134:	2a01      	cmp	r2, #1
 8001136:	d1fa      	bne.n	800112e <osKernelStart+0x26>
 8001138:	2202      	movs	r2, #2
 800113a:	601a      	str	r2, [r3, #0]
 800113c:	f000 fdac 	bl	8001c98 <vTaskStartScheduler>
 8001140:	4620      	mov	r0, r4
 8001142:	e7e7      	b.n	8001114 <osKernelStart+0xc>
 8001144:	200003e8 	.word	0x200003e8

08001148 <osThreadNew>:
 8001148:	b5f0      	push	{r4, r5, r6, r7, lr}
 800114a:	4614      	mov	r4, r2
 800114c:	2200      	movs	r2, #0
 800114e:	b087      	sub	sp, #28
 8001150:	460b      	mov	r3, r1
 8001152:	9205      	str	r2, [sp, #20]
 8001154:	f3ef 8205 	mrs	r2, IPSR
 8001158:	bb52      	cbnz	r2, 80011b0 <osThreadNew+0x68>
 800115a:	f3ef 8210 	mrs	r2, PRIMASK
 800115e:	bb3a      	cbnz	r2, 80011b0 <osThreadNew+0x68>
 8001160:	4a26      	ldr	r2, [pc, #152]	; (80011fc <osThreadNew+0xb4>)
 8001162:	6812      	ldr	r2, [r2, #0]
 8001164:	2a02      	cmp	r2, #2
 8001166:	d102      	bne.n	800116e <osThreadNew+0x26>
 8001168:	f3ef 8211 	mrs	r2, BASEPRI
 800116c:	bb02      	cbnz	r2, 80011b0 <osThreadNew+0x68>
 800116e:	b1f8      	cbz	r0, 80011b0 <osThreadNew+0x68>
 8001170:	2200      	movs	r2, #0
 8001172:	f88d 2013 	strb.w	r2, [sp, #19]
 8001176:	2c00      	cmp	r4, #0
 8001178:	d030      	beq.n	80011dc <osThreadNew+0x94>
 800117a:	6821      	ldr	r1, [r4, #0]
 800117c:	b909      	cbnz	r1, 8001182 <osThreadNew+0x3a>
 800117e:	f10d 0113 	add.w	r1, sp, #19
 8001182:	69a5      	ldr	r5, [r4, #24]
 8001184:	2d00      	cmp	r5, #0
 8001186:	bf08      	it	eq
 8001188:	2518      	moveq	r5, #24
 800118a:	1e6a      	subs	r2, r5, #1
 800118c:	2a37      	cmp	r2, #55	; 0x37
 800118e:	46ac      	mov	ip, r5
 8001190:	d82a      	bhi.n	80011e8 <osThreadNew+0xa0>
 8001192:	6862      	ldr	r2, [r4, #4]
 8001194:	07d2      	lsls	r2, r2, #31
 8001196:	d427      	bmi.n	80011e8 <osThreadNew+0xa0>
 8001198:	6966      	ldr	r6, [r4, #20]
 800119a:	b166      	cbz	r6, 80011b6 <osThreadNew+0x6e>
 800119c:	08b2      	lsrs	r2, r6, #2
 800119e:	e9d4 7e02 	ldrd	r7, lr, [r4, #8]
 80011a2:	b157      	cbz	r7, 80011ba <osThreadNew+0x72>
 80011a4:	f1be 0fbb 	cmp.w	lr, #187	; 0xbb
 80011a8:	d902      	bls.n	80011b0 <osThreadNew+0x68>
 80011aa:	6924      	ldr	r4, [r4, #16]
 80011ac:	b104      	cbz	r4, 80011b0 <osThreadNew+0x68>
 80011ae:	b9ee      	cbnz	r6, 80011ec <osThreadNew+0xa4>
 80011b0:	9805      	ldr	r0, [sp, #20]
 80011b2:	b007      	add	sp, #28
 80011b4:	bdf0      	pop	{r4, r5, r6, r7, pc}
 80011b6:	2280      	movs	r2, #128	; 0x80
 80011b8:	e7f1      	b.n	800119e <osThreadNew+0x56>
 80011ba:	f1be 0f00 	cmp.w	lr, #0
 80011be:	d1f7      	bne.n	80011b0 <osThreadNew+0x68>
 80011c0:	6924      	ldr	r4, [r4, #16]
 80011c2:	2c00      	cmp	r4, #0
 80011c4:	d1f4      	bne.n	80011b0 <osThreadNew+0x68>
 80011c6:	ac05      	add	r4, sp, #20
 80011c8:	e9cd c400 	strd	ip, r4, [sp]
 80011cc:	b292      	uxth	r2, r2
 80011ce:	f000 fd36 	bl	8001c3e <xTaskCreate>
 80011d2:	2801      	cmp	r0, #1
 80011d4:	bf1c      	itt	ne
 80011d6:	2300      	movne	r3, #0
 80011d8:	9305      	strne	r3, [sp, #20]
 80011da:	e7e9      	b.n	80011b0 <osThreadNew+0x68>
 80011dc:	f04f 0c18 	mov.w	ip, #24
 80011e0:	2280      	movs	r2, #128	; 0x80
 80011e2:	f10d 0113 	add.w	r1, sp, #19
 80011e6:	e7ee      	b.n	80011c6 <osThreadNew+0x7e>
 80011e8:	2000      	movs	r0, #0
 80011ea:	e7e2      	b.n	80011b2 <osThreadNew+0x6a>
 80011ec:	e9cd 4701 	strd	r4, r7, [sp, #4]
 80011f0:	9500      	str	r5, [sp, #0]
 80011f2:	f000 fced 	bl	8001bd0 <xTaskCreateStatic>
 80011f6:	9005      	str	r0, [sp, #20]
 80011f8:	e7da      	b.n	80011b0 <osThreadNew+0x68>
 80011fa:	bf00      	nop
 80011fc:	200003e8 	.word	0x200003e8

08001200 <osDelay>:
 8001200:	b508      	push	{r3, lr}
 8001202:	f3ef 8305 	mrs	r3, IPSR
 8001206:	b113      	cbz	r3, 800120e <osDelay+0xe>
 8001208:	f06f 0005 	mvn.w	r0, #5
 800120c:	bd08      	pop	{r3, pc}
 800120e:	f3ef 8310 	mrs	r3, PRIMASK
 8001212:	2b00      	cmp	r3, #0
 8001214:	d1f8      	bne.n	8001208 <osDelay+0x8>
 8001216:	4b07      	ldr	r3, [pc, #28]	; (8001234 <osDelay+0x34>)
 8001218:	681b      	ldr	r3, [r3, #0]
 800121a:	2b02      	cmp	r3, #2
 800121c:	d103      	bne.n	8001226 <osDelay+0x26>
 800121e:	f3ef 8311 	mrs	r3, BASEPRI
 8001222:	2b00      	cmp	r3, #0
 8001224:	d1f0      	bne.n	8001208 <osDelay+0x8>
 8001226:	2800      	cmp	r0, #0
 8001228:	d0f0      	beq.n	800120c <osDelay+0xc>
 800122a:	f000 fe97 	bl	8001f5c <vTaskDelay>
 800122e:	2000      	movs	r0, #0
 8001230:	e7ec      	b.n	800120c <osDelay+0xc>
 8001232:	bf00      	nop
 8001234:	200003e8 	.word	0x200003e8

08001238 <vApplicationGetIdleTaskMemory>:
 8001238:	4b03      	ldr	r3, [pc, #12]	; (8001248 <vApplicationGetIdleTaskMemory+0x10>)
 800123a:	6003      	str	r3, [r0, #0]
 800123c:	4b03      	ldr	r3, [pc, #12]	; (800124c <vApplicationGetIdleTaskMemory+0x14>)
 800123e:	600b      	str	r3, [r1, #0]
 8001240:	2380      	movs	r3, #128	; 0x80
 8001242:	6013      	str	r3, [r2, #0]
 8001244:	4770      	bx	lr
 8001246:	bf00      	nop
 8001248:	2000032c 	.word	0x2000032c
 800124c:	2000012c 	.word	0x2000012c

08001250 <vApplicationGetTimerTaskMemory>:
 8001250:	4b03      	ldr	r3, [pc, #12]	; (8001260 <vApplicationGetTimerTaskMemory+0x10>)
 8001252:	6003      	str	r3, [r0, #0]
 8001254:	4b03      	ldr	r3, [pc, #12]	; (8001264 <vApplicationGetTimerTaskMemory+0x14>)
 8001256:	600b      	str	r3, [r1, #0]
 8001258:	f44f 7380 	mov.w	r3, #256	; 0x100
 800125c:	6013      	str	r3, [r2, #0]
 800125e:	4770      	bx	lr
 8001260:	200007ec 	.word	0x200007ec
 8001264:	200003ec 	.word	0x200003ec

08001268 <vListInitialise>:
 8001268:	f04f 32ff 	mov.w	r2, #4294967295
 800126c:	f100 0308 	add.w	r3, r0, #8
 8001270:	e9c0 2302 	strd	r2, r3, [r0, #8]
 8001274:	6043      	str	r3, [r0, #4]
 8001276:	6103      	str	r3, [r0, #16]
 8001278:	2300      	movs	r3, #0
 800127a:	6003      	str	r3, [r0, #0]
 800127c:	4770      	bx	lr

0800127e <vListInitialiseItem>:
 800127e:	2300      	movs	r3, #0
 8001280:	6103      	str	r3, [r0, #16]
 8001282:	4770      	bx	lr

08001284 <vListInsertEnd>:
 8001284:	6843      	ldr	r3, [r0, #4]
 8001286:	689a      	ldr	r2, [r3, #8]
 8001288:	604b      	str	r3, [r1, #4]
 800128a:	608a      	str	r2, [r1, #8]
 800128c:	689a      	ldr	r2, [r3, #8]
 800128e:	6051      	str	r1, [r2, #4]
 8001290:	6099      	str	r1, [r3, #8]
 8001292:	6803      	ldr	r3, [r0, #0]
 8001294:	6108      	str	r0, [r1, #16]
 8001296:	3301      	adds	r3, #1
 8001298:	6003      	str	r3, [r0, #0]
 800129a:	4770      	bx	lr

0800129c <vListInsert>:
 800129c:	b530      	push	{r4, r5, lr}
 800129e:	680c      	ldr	r4, [r1, #0]
 80012a0:	1c63      	adds	r3, r4, #1
 80012a2:	d10a      	bne.n	80012ba <vListInsert+0x1e>
 80012a4:	6903      	ldr	r3, [r0, #16]
 80012a6:	685a      	ldr	r2, [r3, #4]
 80012a8:	604a      	str	r2, [r1, #4]
 80012aa:	6091      	str	r1, [r2, #8]
 80012ac:	608b      	str	r3, [r1, #8]
 80012ae:	6059      	str	r1, [r3, #4]
 80012b0:	6803      	ldr	r3, [r0, #0]
 80012b2:	6108      	str	r0, [r1, #16]
 80012b4:	3301      	adds	r3, #1
 80012b6:	6003      	str	r3, [r0, #0]
 80012b8:	bd30      	pop	{r4, r5, pc}
 80012ba:	f100 0208 	add.w	r2, r0, #8
 80012be:	4613      	mov	r3, r2
 80012c0:	6852      	ldr	r2, [r2, #4]
 80012c2:	6815      	ldr	r5, [r2, #0]
 80012c4:	42a5      	cmp	r5, r4
 80012c6:	d9fa      	bls.n	80012be <vListInsert+0x22>
 80012c8:	e7ed      	b.n	80012a6 <vListInsert+0xa>

080012ca <uxListRemove>:
 80012ca:	6903      	ldr	r3, [r0, #16]
 80012cc:	e9d0 1201 	ldrd	r1, r2, [r0, #4]
 80012d0:	608a      	str	r2, [r1, #8]
 80012d2:	6051      	str	r1, [r2, #4]
 80012d4:	6859      	ldr	r1, [r3, #4]
 80012d6:	4281      	cmp	r1, r0
 80012d8:	bf08      	it	eq
 80012da:	605a      	streq	r2, [r3, #4]
 80012dc:	2200      	movs	r2, #0
 80012de:	6102      	str	r2, [r0, #16]
 80012e0:	681a      	ldr	r2, [r3, #0]
 80012e2:	3a01      	subs	r2, #1
 80012e4:	601a      	str	r2, [r3, #0]
 80012e6:	6818      	ldr	r0, [r3, #0]
 80012e8:	4770      	bx	lr

080012ea <prvIsQueueEmpty>:
 80012ea:	b510      	push	{r4, lr}
 80012ec:	4604      	mov	r4, r0
 80012ee:	f001 f9e9 	bl	80026c4 <vPortEnterCritical>
 80012f2:	6ba4      	ldr	r4, [r4, #56]	; 0x38
 80012f4:	f001 fa06 	bl	8002704 <vPortExitCritical>
 80012f8:	fab4 f084 	clz	r0, r4
 80012fc:	0940      	lsrs	r0, r0, #5
 80012fe:	bd10      	pop	{r4, pc}

08001300 <prvCopyDataToQueue>:
 8001300:	b5f8      	push	{r3, r4, r5, r6, r7, lr}
 8001302:	4615      	mov	r5, r2
 8001304:	6c02      	ldr	r2, [r0, #64]	; 0x40
 8001306:	4604      	mov	r4, r0
 8001308:	6b86      	ldr	r6, [r0, #56]	; 0x38
 800130a:	b952      	cbnz	r2, 8001322 <prvCopyDataToQueue+0x22>
 800130c:	6807      	ldr	r7, [r0, #0]
 800130e:	bb47      	cbnz	r7, 8001362 <prvCopyDataToQueue+0x62>
 8001310:	6840      	ldr	r0, [r0, #4]
 8001312:	f000 ff61 	bl	80021d8 <xTaskPriorityDisinherit>
 8001316:	4605      	mov	r5, r0
 8001318:	6067      	str	r7, [r4, #4]
 800131a:	3601      	adds	r6, #1
 800131c:	4628      	mov	r0, r5
 800131e:	63a6      	str	r6, [r4, #56]	; 0x38
 8001320:	bdf8      	pop	{r3, r4, r5, r6, r7, pc}
 8001322:	b965      	cbnz	r5, 800133e <prvCopyDataToQueue+0x3e>
 8001324:	6880      	ldr	r0, [r0, #8]
 8001326:	f001 fc19 	bl	8002b5c <memcpy>
 800132a:	68a3      	ldr	r3, [r4, #8]
 800132c:	6c22      	ldr	r2, [r4, #64]	; 0x40
 800132e:	4413      	add	r3, r2
 8001330:	6862      	ldr	r2, [r4, #4]
 8001332:	60a3      	str	r3, [r4, #8]
 8001334:	4293      	cmp	r3, r2
 8001336:	d3f0      	bcc.n	800131a <prvCopyDataToQueue+0x1a>
 8001338:	6823      	ldr	r3, [r4, #0]
 800133a:	60a3      	str	r3, [r4, #8]
 800133c:	e7ed      	b.n	800131a <prvCopyDataToQueue+0x1a>
 800133e:	68c0      	ldr	r0, [r0, #12]
 8001340:	f001 fc0c 	bl	8002b5c <memcpy>
 8001344:	6c22      	ldr	r2, [r4, #64]	; 0x40
 8001346:	68e3      	ldr	r3, [r4, #12]
 8001348:	4251      	negs	r1, r2
 800134a:	1a9b      	subs	r3, r3, r2
 800134c:	6822      	ldr	r2, [r4, #0]
 800134e:	60e3      	str	r3, [r4, #12]
 8001350:	4293      	cmp	r3, r2
 8001352:	bf3e      	ittt	cc
 8001354:	6863      	ldrcc	r3, [r4, #4]
 8001356:	185b      	addcc	r3, r3, r1
 8001358:	60e3      	strcc	r3, [r4, #12]
 800135a:	2d02      	cmp	r5, #2
 800135c:	d101      	bne.n	8001362 <prvCopyDataToQueue+0x62>
 800135e:	b116      	cbz	r6, 8001366 <prvCopyDataToQueue+0x66>
 8001360:	3e01      	subs	r6, #1
 8001362:	2500      	movs	r5, #0
 8001364:	e7d9      	b.n	800131a <prvCopyDataToQueue+0x1a>
 8001366:	4635      	mov	r5, r6
 8001368:	e7d7      	b.n	800131a <prvCopyDataToQueue+0x1a>

0800136a <prvCopyDataFromQueue>:
 800136a:	4603      	mov	r3, r0
 800136c:	6c1a      	ldr	r2, [r3, #64]	; 0x40
 800136e:	4608      	mov	r0, r1
 8001370:	b410      	push	{r4}
 8001372:	b162      	cbz	r2, 800138e <prvCopyDataFromQueue+0x24>
 8001374:	68dc      	ldr	r4, [r3, #12]
 8001376:	6859      	ldr	r1, [r3, #4]
 8001378:	4414      	add	r4, r2
 800137a:	428c      	cmp	r4, r1
 800137c:	bf28      	it	cs
 800137e:	6819      	ldrcs	r1, [r3, #0]
 8001380:	60dc      	str	r4, [r3, #12]
 8001382:	bf28      	it	cs
 8001384:	60d9      	strcs	r1, [r3, #12]
 8001386:	68d9      	ldr	r1, [r3, #12]
 8001388:	bc10      	pop	{r4}
 800138a:	f001 bbe7 	b.w	8002b5c <memcpy>
 800138e:	bc10      	pop	{r4}
 8001390:	4770      	bx	lr

08001392 <prvUnlockQueue>:
 8001392:	b570      	push	{r4, r5, r6, lr}
 8001394:	4604      	mov	r4, r0
 8001396:	f001 f995 	bl	80026c4 <vPortEnterCritical>
 800139a:	f894 5045 	ldrb.w	r5, [r4, #69]	; 0x45
 800139e:	f104 0624 	add.w	r6, r4, #36	; 0x24
 80013a2:	b26d      	sxtb	r5, r5
 80013a4:	2d00      	cmp	r5, #0
 80013a6:	dc14      	bgt.n	80013d2 <prvUnlockQueue+0x40>
 80013a8:	23ff      	movs	r3, #255	; 0xff
 80013aa:	f884 3045 	strb.w	r3, [r4, #69]	; 0x45
 80013ae:	f001 f9a9 	bl	8002704 <vPortExitCritical>
 80013b2:	f001 f987 	bl	80026c4 <vPortEnterCritical>
 80013b6:	f894 5044 	ldrb.w	r5, [r4, #68]	; 0x44
 80013ba:	f104 0610 	add.w	r6, r4, #16
 80013be:	b26d      	sxtb	r5, r5
 80013c0:	2d00      	cmp	r5, #0
 80013c2:	dc12      	bgt.n	80013ea <prvUnlockQueue+0x58>
 80013c4:	23ff      	movs	r3, #255	; 0xff
 80013c6:	f884 3044 	strb.w	r3, [r4, #68]	; 0x44
 80013ca:	e8bd 4070 	ldmia.w	sp!, {r4, r5, r6, lr}
 80013ce:	f001 b999 	b.w	8002704 <vPortExitCritical>
 80013d2:	6a63      	ldr	r3, [r4, #36]	; 0x24
 80013d4:	2b00      	cmp	r3, #0
 80013d6:	d0e7      	beq.n	80013a8 <prvUnlockQueue+0x16>
 80013d8:	4630      	mov	r0, r6
 80013da:	f000 fe5f 	bl	800209c <xTaskRemoveFromEventList>
 80013de:	b108      	cbz	r0, 80013e4 <prvUnlockQueue+0x52>
 80013e0:	f000 fee4 	bl	80021ac <vTaskMissedYield>
 80013e4:	3d01      	subs	r5, #1
 80013e6:	b26d      	sxtb	r5, r5
 80013e8:	e7dc      	b.n	80013a4 <prvUnlockQueue+0x12>
 80013ea:	6923      	ldr	r3, [r4, #16]
 80013ec:	2b00      	cmp	r3, #0
 80013ee:	d0e9      	beq.n	80013c4 <prvUnlockQueue+0x32>
 80013f0:	4630      	mov	r0, r6
 80013f2:	f000 fe53 	bl	800209c <xTaskRemoveFromEventList>
 80013f6:	b108      	cbz	r0, 80013fc <prvUnlockQueue+0x6a>
 80013f8:	f000 fed8 	bl	80021ac <vTaskMissedYield>
 80013fc:	3d01      	subs	r5, #1
 80013fe:	b26d      	sxtb	r5, r5
 8001400:	e7de      	b.n	80013c0 <prvUnlockQueue+0x2e>

08001402 <xQueueGenericReset>:
 8001402:	b538      	push	{r3, r4, r5, lr}
 8001404:	460d      	mov	r5, r1
 8001406:	4604      	mov	r4, r0
 8001408:	b940      	cbnz	r0, 800141c <xQueueGenericReset+0x1a>
 800140a:	f04f 0350 	mov.w	r3, #80	; 0x50
 800140e:	f383 8811 	msr	BASEPRI, r3
 8001412:	f3bf 8f6f 	isb	sy
 8001416:	f3bf 8f4f 	dsb	sy
 800141a:	e7fe      	b.n	800141a <xQueueGenericReset+0x18>
 800141c:	f001 f952 	bl	80026c4 <vPortEnterCritical>
 8001420:	e9d4 310f 	ldrd	r3, r1, [r4, #60]	; 0x3c
 8001424:	434b      	muls	r3, r1
 8001426:	6822      	ldr	r2, [r4, #0]
 8001428:	18d0      	adds	r0, r2, r3
 800142a:	1a5b      	subs	r3, r3, r1
 800142c:	4413      	add	r3, r2
 800142e:	6060      	str	r0, [r4, #4]
 8001430:	60e3      	str	r3, [r4, #12]
 8001432:	2000      	movs	r0, #0
 8001434:	23ff      	movs	r3, #255	; 0xff
 8001436:	63a0      	str	r0, [r4, #56]	; 0x38
 8001438:	60a2      	str	r2, [r4, #8]
 800143a:	f884 3044 	strb.w	r3, [r4, #68]	; 0x44
 800143e:	f884 3045 	strb.w	r3, [r4, #69]	; 0x45
 8001442:	b9a5      	cbnz	r5, 800146e <xQueueGenericReset+0x6c>
 8001444:	6923      	ldr	r3, [r4, #16]
 8001446:	b173      	cbz	r3, 8001466 <xQueueGenericReset+0x64>
 8001448:	f104 0010 	add.w	r0, r4, #16
 800144c:	f000 fe26 	bl	800209c <xTaskRemoveFromEventList>
 8001450:	b148      	cbz	r0, 8001466 <xQueueGenericReset+0x64>
 8001452:	f04f 23e0 	mov.w	r3, #3758153728	; 0xe000e000
 8001456:	f04f 5280 	mov.w	r2, #268435456	; 0x10000000
 800145a:	f8c3 2d04 	str.w	r2, [r3, #3332]	; 0xd04
 800145e:	f3bf 8f4f 	dsb	sy
 8001462:	f3bf 8f6f 	isb	sy
 8001466:	f001 f94d 	bl	8002704 <vPortExitCritical>
 800146a:	2001      	movs	r0, #1
 800146c:	bd38      	pop	{r3, r4, r5, pc}
 800146e:	f104 0010 	add.w	r0, r4, #16
 8001472:	f7ff fef9 	bl	8001268 <vListInitialise>
 8001476:	f104 0024 	add.w	r0, r4, #36	; 0x24
 800147a:	f7ff fef5 	bl	8001268 <vListInitialise>
 800147e:	e7f2      	b.n	8001466 <xQueueGenericReset+0x64>

08001480 <xQueueGenericCreateStatic>:
 8001480:	b537      	push	{r0, r1, r2, r4, r5, lr}
 8001482:	460d      	mov	r5, r1
 8001484:	461c      	mov	r4, r3
 8001486:	b940      	cbnz	r0, 800149a <xQueueGenericCreateStatic+0x1a>
 8001488:	f04f 0350 	mov.w	r3, #80	; 0x50
 800148c:	f383 8811 	msr	BASEPRI, r3
 8001490:	f3bf 8f6f 	isb	sy
 8001494:	f3bf 8f4f 	dsb	sy
 8001498:	e7fe      	b.n	8001498 <xQueueGenericCreateStatic+0x18>
 800149a:	b943      	cbnz	r3, 80014ae <xQueueGenericCreateStatic+0x2e>
 800149c:	f04f 0350 	mov.w	r3, #80	; 0x50
 80014a0:	f383 8811 	msr	BASEPRI, r3
 80014a4:	f3bf 8f6f 	isb	sy
 80014a8:	f3bf 8f4f 	dsb	sy
 80014ac:	e7fe      	b.n	80014ac <xQueueGenericCreateStatic+0x2c>
 80014ae:	b14a      	cbz	r2, 80014c4 <xQueueGenericCreateStatic+0x44>
 80014b0:	b991      	cbnz	r1, 80014d8 <xQueueGenericCreateStatic+0x58>
 80014b2:	f04f 0350 	mov.w	r3, #80	; 0x50
 80014b6:	f383 8811 	msr	BASEPRI, r3
 80014ba:	f3bf 8f6f 	isb	sy
 80014be:	f3bf 8f4f 	dsb	sy
 80014c2:	e7fe      	b.n	80014c2 <xQueueGenericCreateStatic+0x42>
 80014c4:	b141      	cbz	r1, 80014d8 <xQueueGenericCreateStatic+0x58>
 80014c6:	f04f 0350 	mov.w	r3, #80	; 0x50
 80014ca:	f383 8811 	msr	BASEPRI, r3
 80014ce:	f3bf 8f6f 	isb	sy
 80014d2:	f3bf 8f4f 	dsb	sy
 80014d6:	e7fe      	b.n	80014d6 <xQueueGenericCreateStatic+0x56>
 80014d8:	2350      	movs	r3, #80	; 0x50
 80014da:	9301      	str	r3, [sp, #4]
 80014dc:	9b01      	ldr	r3, [sp, #4]
 80014de:	2b50      	cmp	r3, #80	; 0x50
 80014e0:	d008      	beq.n	80014f4 <xQueueGenericCreateStatic+0x74>
 80014e2:	f04f 0350 	mov.w	r3, #80	; 0x50
 80014e6:	f383 8811 	msr	BASEPRI, r3
 80014ea:	f3bf 8f6f 	isb	sy
 80014ee:	f3bf 8f4f 	dsb	sy
 80014f2:	e7fe      	b.n	80014f2 <xQueueGenericCreateStatic+0x72>
 80014f4:	2101      	movs	r1, #1
 80014f6:	2d00      	cmp	r5, #0
 80014f8:	bf08      	it	eq
 80014fa:	4622      	moveq	r2, r4
 80014fc:	e9c4 050f 	strd	r0, r5, [r4, #60]	; 0x3c
 8001500:	f884 1046 	strb.w	r1, [r4, #70]	; 0x46
 8001504:	4620      	mov	r0, r4
 8001506:	6022      	str	r2, [r4, #0]
 8001508:	f7ff ff7b 	bl	8001402 <xQueueGenericReset>
 800150c:	4620      	mov	r0, r4
 800150e:	f89d 3018 	ldrb.w	r3, [sp, #24]
 8001512:	f884 304c 	strb.w	r3, [r4, #76]	; 0x4c
 8001516:	b003      	add	sp, #12
 8001518:	bd30      	pop	{r4, r5, pc}

0800151a <xQueueGenericSend>:
 800151a:	e92d 43f0 	stmdb	sp!, {r4, r5, r6, r7, r8, r9, lr}
 800151e:	b085      	sub	sp, #20
 8001520:	4688      	mov	r8, r1
 8001522:	461f      	mov	r7, r3
 8001524:	4604      	mov	r4, r0
 8001526:	9201      	str	r2, [sp, #4]
 8001528:	b940      	cbnz	r0, 800153c <xQueueGenericSend+0x22>
 800152a:	f04f 0350 	mov.w	r3, #80	; 0x50
 800152e:	f383 8811 	msr	BASEPRI, r3
 8001532:	f3bf 8f6f 	isb	sy
 8001536:	f3bf 8f4f 	dsb	sy
 800153a:	e7fe      	b.n	800153a <xQueueGenericSend+0x20>
 800153c:	b951      	cbnz	r1, 8001554 <xQueueGenericSend+0x3a>
 800153e:	6c03      	ldr	r3, [r0, #64]	; 0x40
 8001540:	b143      	cbz	r3, 8001554 <xQueueGenericSend+0x3a>
 8001542:	f04f 0350 	mov.w	r3, #80	; 0x50
 8001546:	f383 8811 	msr	BASEPRI, r3
 800154a:	f3bf 8f6f 	isb	sy
 800154e:	f3bf 8f4f 	dsb	sy
 8001552:	e7fe      	b.n	8001552 <xQueueGenericSend+0x38>
 8001554:	2f02      	cmp	r7, #2
 8001556:	d10b      	bne.n	8001570 <xQueueGenericSend+0x56>
 8001558:	6be3      	ldr	r3, [r4, #60]	; 0x3c
 800155a:	2b01      	cmp	r3, #1
 800155c:	d008      	beq.n	8001570 <xQueueGenericSend+0x56>
 800155e:	f04f 0350 	mov.w	r3, #80	; 0x50
 8001562:	f383 8811 	msr	BASEPRI, r3
 8001566:	f3bf 8f6f 	isb	sy
 800156a:	f3bf 8f4f 	dsb	sy
 800156e:	e7fe      	b.n	800156e <xQueueGenericSend+0x54>
 8001570:	f000 fe22 	bl	80021b8 <xTaskGetSchedulerState>
 8001574:	4606      	mov	r6, r0
 8001576:	b950      	cbnz	r0, 800158e <xQueueGenericSend+0x74>
 8001578:	9b01      	ldr	r3, [sp, #4]
 800157a:	b14b      	cbz	r3, 8001590 <xQueueGenericSend+0x76>
 800157c:	f04f 0350 	mov.w	r3, #80	; 0x50
 8001580:	f383 8811 	msr	BASEPRI, r3
 8001584:	f3bf 8f6f 	isb	sy
 8001588:	f3bf 8f4f 	dsb	sy
 800158c:	e7fe      	b.n	800158c <xQueueGenericSend+0x72>
 800158e:	2600      	movs	r6, #0
 8001590:	f04f 0900 	mov.w	r9, #0
 8001594:	e037      	b.n	8001606 <xQueueGenericSend+0xec>
 8001596:	9d01      	ldr	r5, [sp, #4]
 8001598:	b91d      	cbnz	r5, 80015a2 <xQueueGenericSend+0x88>
 800159a:	f001 f8b3 	bl	8002704 <vPortExitCritical>
 800159e:	2000      	movs	r0, #0
 80015a0:	e052      	b.n	8001648 <xQueueGenericSend+0x12e>
 80015a2:	b916      	cbnz	r6, 80015aa <xQueueGenericSend+0x90>
 80015a4:	a802      	add	r0, sp, #8
 80015a6:	f000 fdb9 	bl	800211c <vTaskInternalSetTimeOutState>
 80015aa:	f001 f8ab 	bl	8002704 <vPortExitCritical>
 80015ae:	f000 fbc3 	bl	8001d38 <vTaskSuspendAll>
 80015b2:	f001 f887 	bl	80026c4 <vPortEnterCritical>
 80015b6:	f894 3044 	ldrb.w	r3, [r4, #68]	; 0x44
 80015ba:	2bff      	cmp	r3, #255	; 0xff
 80015bc:	bf08      	it	eq
 80015be:	f884 9044 	strbeq.w	r9, [r4, #68]	; 0x44
 80015c2:	f894 3045 	ldrb.w	r3, [r4, #69]	; 0x45
 80015c6:	2bff      	cmp	r3, #255	; 0xff
 80015c8:	bf08      	it	eq
 80015ca:	f884 9045 	strbeq.w	r9, [r4, #69]	; 0x45
 80015ce:	f001 f899 	bl	8002704 <vPortExitCritical>
 80015d2:	a901      	add	r1, sp, #4
 80015d4:	a802      	add	r0, sp, #8
 80015d6:	f000 fdad 	bl	8002134 <xTaskCheckForTimeOut>
 80015da:	2800      	cmp	r0, #0
 80015dc:	d14a      	bne.n	8001674 <xQueueGenericSend+0x15a>
 80015de:	f001 f871 	bl	80026c4 <vPortEnterCritical>
 80015e2:	6ba2      	ldr	r2, [r4, #56]	; 0x38
 80015e4:	6be3      	ldr	r3, [r4, #60]	; 0x3c
 80015e6:	429a      	cmp	r2, r3
 80015e8:	d131      	bne.n	800164e <xQueueGenericSend+0x134>
 80015ea:	f001 f88b 	bl	8002704 <vPortExitCritical>
 80015ee:	9901      	ldr	r1, [sp, #4]
 80015f0:	f104 0010 	add.w	r0, r4, #16
 80015f4:	f000 fd18 	bl	8002028 <vTaskPlaceOnEventList>
 80015f8:	4620      	mov	r0, r4
 80015fa:	f7ff feca 	bl	8001392 <prvUnlockQueue>
 80015fe:	f000 fc39 	bl	8001e74 <xTaskResumeAll>
 8001602:	b360      	cbz	r0, 800165e <xQueueGenericSend+0x144>
 8001604:	2601      	movs	r6, #1
 8001606:	f001 f85d 	bl	80026c4 <vPortEnterCritical>
 800160a:	6ba2      	ldr	r2, [r4, #56]	; 0x38
 800160c:	6be3      	ldr	r3, [r4, #60]	; 0x3c
 800160e:	429a      	cmp	r2, r3
 8001610:	d301      	bcc.n	8001616 <xQueueGenericSend+0xfc>
 8001612:	2f02      	cmp	r7, #2
 8001614:	d1bf      	bne.n	8001596 <xQueueGenericSend+0x7c>
 8001616:	463a      	mov	r2, r7
 8001618:	4641      	mov	r1, r8
 800161a:	4620      	mov	r0, r4
 800161c:	f7ff fe70 	bl	8001300 <prvCopyDataToQueue>
 8001620:	6a63      	ldr	r3, [r4, #36]	; 0x24
 8001622:	b11b      	cbz	r3, 800162c <xQueueGenericSend+0x112>
 8001624:	f104 0024 	add.w	r0, r4, #36	; 0x24
 8001628:	f000 fd38 	bl	800209c <xTaskRemoveFromEventList>
 800162c:	b148      	cbz	r0, 8001642 <xQueueGenericSend+0x128>
 800162e:	f04f 23e0 	mov.w	r3, #3758153728	; 0xe000e000
 8001632:	f04f 5280 	mov.w	r2, #268435456	; 0x10000000
 8001636:	f8c3 2d04 	str.w	r2, [r3, #3332]	; 0xd04
 800163a:	f3bf 8f4f 	dsb	sy
 800163e:	f3bf 8f6f 	isb	sy
 8001642:	f001 f85f 	bl	8002704 <vPortExitCritical>
 8001646:	2001      	movs	r0, #1
 8001648:	b005      	add	sp, #20
 800164a:	e8bd 83f0 	ldmia.w	sp!, {r4, r5, r6, r7, r8, r9, pc}
 800164e:	f001 f859 	bl	8002704 <vPortExitCritical>
 8001652:	4620      	mov	r0, r4
 8001654:	f7ff fe9d 	bl	8001392 <prvUnlockQueue>
 8001658:	f000 fc0c 	bl	8001e74 <xTaskResumeAll>
 800165c:	e7d2      	b.n	8001604 <xQueueGenericSend+0xea>
 800165e:	f04f 23e0 	mov.w	r3, #3758153728	; 0xe000e000
 8001662:	f04f 5280 	mov.w	r2, #268435456	; 0x10000000
 8001666:	f8c3 2d04 	str.w	r2, [r3, #3332]	; 0xd04
 800166a:	f3bf 8f4f 	dsb	sy
 800166e:	f3bf 8f6f 	isb	sy
 8001672:	e7c7      	b.n	8001604 <xQueueGenericSend+0xea>
 8001674:	4620      	mov	r0, r4
 8001676:	f7ff fe8c 	bl	8001392 <prvUnlockQueue>
 800167a:	f000 fbfb 	bl	8001e74 <xTaskResumeAll>
 800167e:	e78e      	b.n	800159e <xQueueGenericSend+0x84>

08001680 <xQueueGenericSendFromISR>:
 8001680:	e92d 43f8 	stmdb	sp!, {r3, r4, r5, r6, r7, r8, r9, lr}
 8001684:	4689      	mov	r9, r1
 8001686:	4690      	mov	r8, r2
 8001688:	461f      	mov	r7, r3
 800168a:	4604      	mov	r4, r0
 800168c:	b940      	cbnz	r0, 80016a0 <xQueueGenericSendFromISR+0x20>
 800168e:	f04f 0350 	mov.w	r3, #80	; 0x50
 8001692:	f383 8811 	msr	BASEPRI, r3
 8001696:	f3bf 8f6f 	isb	sy
 800169a:	f3bf 8f4f 	dsb	sy
 800169e:	e7fe      	b.n	800169e <xQueueGenericSendFromISR+0x1e>
 80016a0:	b951      	cbnz	r1, 80016b8 <xQueueGenericSendFromISR+0x38>
 80016a2:	6c03      	ldr	r3, [r0, #64]	; 0x40
 80016a4:	b143      	cbz	r3, 80016b8 <xQueueGenericSendFromISR+0x38>
 80016a6:	f04f 0350 	mov.w	r3, #80	; 0x50
 80016aa:	f383 8811 	msr	BASEPRI, r3
 80016ae:	f3bf 8f6f 	isb	sy
 80016b2:	f3bf 8f4f 	dsb	sy
 80016b6:	e7fe      	b.n	80016b6 <xQueueGenericSendFromISR+0x36>
 80016b8:	2f02      	cmp	r7, #2
 80016ba:	d10b      	bne.n	80016d4 <xQueueGenericSendFromISR+0x54>
 80016bc:	6be3      	ldr	r3, [r4, #60]	; 0x3c
 80016be:	2b01      	cmp	r3, #1
 80016c0:	d008      	beq.n	80016d4 <xQueueGenericSendFromISR+0x54>
 80016c2:	f04f 0350 	mov.w	r3, #80	; 0x50
 80016c6:	f383 8811 	msr	BASEPRI, r3
 80016ca:	f3bf 8f6f 	isb	sy
 80016ce:	f3bf 8f4f 	dsb	sy
 80016d2:	e7fe      	b.n	80016d2 <xQueueGenericSendFromISR+0x52>
 80016d4:	f001 f8d2 	bl	800287c <vPortValidateInterruptPriority>
 80016d8:	f3ef 8611 	mrs	r6, BASEPRI
 80016dc:	f04f 0350 	mov.w	r3, #80	; 0x50
 80016e0:	f383 8811 	msr	BASEPRI, r3
 80016e4:	f3bf 8f6f 	isb	sy
 80016e8:	f3bf 8f4f 	dsb	sy
 80016ec:	6ba2      	ldr	r2, [r4, #56]	; 0x38
 80016ee:	6be3      	ldr	r3, [r4, #60]	; 0x3c
 80016f0:	429a      	cmp	r2, r3
 80016f2:	d301      	bcc.n	80016f8 <xQueueGenericSendFromISR+0x78>
 80016f4:	2f02      	cmp	r7, #2
 80016f6:	d122      	bne.n	800173e <xQueueGenericSendFromISR+0xbe>
 80016f8:	f894 5045 	ldrb.w	r5, [r4, #69]	; 0x45
 80016fc:	463a      	mov	r2, r7
 80016fe:	4649      	mov	r1, r9
 8001700:	4620      	mov	r0, r4
 8001702:	b26d      	sxtb	r5, r5
 8001704:	f7ff fdfc 	bl	8001300 <prvCopyDataToQueue>
 8001708:	1c6b      	adds	r3, r5, #1
 800170a:	d113      	bne.n	8001734 <xQueueGenericSendFromISR+0xb4>
 800170c:	6a63      	ldr	r3, [r4, #36]	; 0x24
 800170e:	b90b      	cbnz	r3, 8001714 <xQueueGenericSendFromISR+0x94>
 8001710:	2001      	movs	r0, #1
 8001712:	e00b      	b.n	800172c <xQueueGenericSendFromISR+0xac>
 8001714:	f104 0024 	add.w	r0, r4, #36	; 0x24
 8001718:	f000 fcc0 	bl	800209c <xTaskRemoveFromEventList>
 800171c:	2800      	cmp	r0, #0
 800171e:	d0f7      	beq.n	8001710 <xQueueGenericSendFromISR+0x90>
 8001720:	f1b8 0f00 	cmp.w	r8, #0
 8001724:	d0f4      	beq.n	8001710 <xQueueGenericSendFromISR+0x90>
 8001726:	2001      	movs	r0, #1
 8001728:	f8c8 0000 	str.w	r0, [r8]
 800172c:	f386 8811 	msr	BASEPRI, r6
 8001730:	e8bd 83f8 	ldmia.w	sp!, {r3, r4, r5, r6, r7, r8, r9, pc}
 8001734:	3501      	adds	r5, #1
 8001736:	b26d      	sxtb	r5, r5
 8001738:	f884 5045 	strb.w	r5, [r4, #69]	; 0x45
 800173c:	e7e8      	b.n	8001710 <xQueueGenericSendFromISR+0x90>
 800173e:	2000      	movs	r0, #0
 8001740:	e7f4      	b.n	800172c <xQueueGenericSendFromISR+0xac>

08001742 <xQueueReceive>:
 8001742:	e92d 41ff 	stmdb	sp!, {r0, r1, r2, r3, r4, r5, r6, r7, r8, lr}
 8001746:	460f      	mov	r7, r1
 8001748:	4604      	mov	r4, r0
 800174a:	9201      	str	r2, [sp, #4]
 800174c:	b940      	cbnz	r0, 8001760 <xQueueReceive+0x1e>
 800174e:	f04f 0350 	mov.w	r3, #80	; 0x50
 8001752:	f383 8811 	msr	BASEPRI, r3
 8001756:	f3bf 8f6f 	isb	sy
 800175a:	f3bf 8f4f 	dsb	sy
 800175e:	e7fe      	b.n	800175e <xQueueReceive+0x1c>
 8001760:	b951      	cbnz	r1, 8001778 <xQueueReceive+0x36>
 8001762:	6c03      	ldr	r3, [r0, #64]	; 0x40
 8001764:	b143      	cbz	r3, 8001778 <xQueueReceive+0x36>
 8001766:	f04f 0350 	mov.w	r3, #80	; 0x50
 800176a:	f383 8811 	msr	BASEPRI, r3
 800176e:	f3bf 8f6f 	isb	sy
 8001772:	f3bf 8f4f 	dsb	sy
 8001776:	e7fe      	b.n	8001776 <xQueueReceive+0x34>
 8001778:	f000 fd1e 	bl	80021b8 <xTaskGetSchedulerState>
 800177c:	4606      	mov	r6, r0
 800177e:	b950      	cbnz	r0, 8001796 <xQueueReceive+0x54>
 8001780:	9b01      	ldr	r3, [sp, #4]
 8001782:	b14b      	cbz	r3, 8001798 <xQueueReceive+0x56>
 8001784:	f04f 0350 	mov.w	r3, #80	; 0x50
 8001788:	f383 8811 	msr	BASEPRI, r3
 800178c:	f3bf 8f6f 	isb	sy
 8001790:	f3bf 8f4f 	dsb	sy
 8001794:	e7fe      	b.n	8001794 <xQueueReceive+0x52>
 8001796:	2600      	movs	r6, #0
 8001798:	f04f 0800 	mov.w	r8, #0
 800179c:	e03d      	b.n	800181a <xQueueReceive+0xd8>
 800179e:	9d01      	ldr	r5, [sp, #4]
 80017a0:	b91d      	cbnz	r5, 80017aa <xQueueReceive+0x68>
 80017a2:	f000 ffaf 	bl	8002704 <vPortExitCritical>
 80017a6:	2000      	movs	r0, #0
 80017a8:	e056      	b.n	8001858 <xQueueReceive+0x116>
 80017aa:	b916      	cbnz	r6, 80017b2 <xQueueReceive+0x70>
 80017ac:	a802      	add	r0, sp, #8
 80017ae:	f000 fcb5 	bl	800211c <vTaskInternalSetTimeOutState>
 80017b2:	f000 ffa7 	bl	8002704 <vPortExitCritical>
 80017b6:	f000 fabf 	bl	8001d38 <vTaskSuspendAll>
 80017ba:	f000 ff83 	bl	80026c4 <vPortEnterCritical>
 80017be:	f894 3044 	ldrb.w	r3, [r4, #68]	; 0x44
 80017c2:	2bff      	cmp	r3, #255	; 0xff
 80017c4:	bf08      	it	eq
 80017c6:	f884 8044 	strbeq.w	r8, [r4, #68]	; 0x44
 80017ca:	f894 3045 	ldrb.w	r3, [r4, #69]	; 0x45
 80017ce:	2bff      	cmp	r3, #255	; 0xff
 80017d0:	bf08      	it	eq
 80017d2:	f884 8045 	strbeq.w	r8, [r4, #69]	; 0x45
 80017d6:	f000 ff95 	bl	8002704 <vPortExitCritical>
 80017da:	a901      	add	r1, sp, #4
 80017dc:	a802      	add	r0, sp, #8
 80017de:	f000 fca9 	bl	8002134 <xTaskCheckForTimeOut>
 80017e2:	2800      	cmp	r0, #0
 80017e4:	d141      	bne.n	800186a <xQueueReceive+0x128>
 80017e6:	4620      	mov	r0, r4
 80017e8:	f7ff fd7f 	bl	80012ea <prvIsQueueEmpty>
 80017ec:	b3b8      	cbz	r0, 800185e <xQueueReceive+0x11c>
 80017ee:	9901      	ldr	r1, [sp, #4]
 80017f0:	f104 0024 	add.w	r0, r4, #36	; 0x24
 80017f4:	f000 fc18 	bl	8002028 <vTaskPlaceOnEventList>
 80017f8:	4620      	mov	r0, r4
 80017fa:	f7ff fdca 	bl	8001392 <prvUnlockQueue>
 80017fe:	f000 fb39 	bl	8001e74 <xTaskResumeAll>
 8001802:	b948      	cbnz	r0, 8001818 <xQueueReceive+0xd6>
 8001804:	f04f 23e0 	mov.w	r3, #3758153728	; 0xe000e000
 8001808:	f04f 5280 	mov.w	r2, #268435456	; 0x10000000
 800180c:	f8c3 2d04 	str.w	r2, [r3, #3332]	; 0xd04
 8001810:	f3bf 8f4f 	dsb	sy
 8001814:	f3bf 8f6f 	isb	sy
 8001818:	2601      	movs	r6, #1
 800181a:	f000 ff53 	bl	80026c4 <vPortEnterCritical>
 800181e:	6ba5      	ldr	r5, [r4, #56]	; 0x38
 8001820:	2d00      	cmp	r5, #0
 8001822:	d0bc      	beq.n	800179e <xQueueReceive+0x5c>
 8001824:	4639      	mov	r1, r7
 8001826:	4620      	mov	r0, r4
 8001828:	3d01      	subs	r5, #1
 800182a:	f7ff fd9e 	bl	800136a <prvCopyDataFromQueue>
 800182e:	63a5      	str	r5, [r4, #56]	; 0x38
 8001830:	6923      	ldr	r3, [r4, #16]
 8001832:	b173      	cbz	r3, 8001852 <xQueueReceive+0x110>
 8001834:	f104 0010 	add.w	r0, r4, #16
 8001838:	f000 fc30 	bl	800209c <xTaskRemoveFromEventList>
 800183c:	b148      	cbz	r0, 8001852 <xQueueReceive+0x110>
 800183e:	f04f 23e0 	mov.w	r3, #3758153728	; 0xe000e000
 8001842:	f04f 5280 	mov.w	r2, #268435456	; 0x10000000
 8001846:	f8c3 2d04 	str.w	r2, [r3, #3332]	; 0xd04
 800184a:	f3bf 8f4f 	dsb	sy
 800184e:	f3bf 8f6f 	isb	sy
 8001852:	f000 ff57 	bl	8002704 <vPortExitCritical>
 8001856:	2001      	movs	r0, #1
 8001858:	b004      	add	sp, #16
 800185a:	e8bd 81f0 	ldmia.w	sp!, {r4, r5, r6, r7, r8, pc}
 800185e:	4620      	mov	r0, r4
 8001860:	f7ff fd97 	bl	8001392 <prvUnlockQueue>
 8001864:	f000 fb06 	bl	8001e74 <xTaskResumeAll>
 8001868:	e7d6      	b.n	8001818 <xQueueReceive+0xd6>
 800186a:	4620      	mov	r0, r4
 800186c:	f7ff fd91 	bl	8001392 <prvUnlockQueue>
 8001870:	f000 fb00 	bl	8001e74 <xTaskResumeAll>
 8001874:	4620      	mov	r0, r4
 8001876:	f7ff fd38 	bl	80012ea <prvIsQueueEmpty>
 800187a:	2800      	cmp	r0, #0
 800187c:	d0cc      	beq.n	8001818 <xQueueReceive+0xd6>
 800187e:	e792      	b.n	80017a6 <xQueueReceive+0x64>

08001880 <vQueueAddToRegistry>:
 8001880:	2300      	movs	r3, #0
 8001882:	b510      	push	{r4, lr}
 8001884:	4a06      	ldr	r2, [pc, #24]	; (80018a0 <vQueueAddToRegistry+0x20>)
 8001886:	f852 4033 	ldr.w	r4, [r2, r3, lsl #3]
 800188a:	b92c      	cbnz	r4, 8001898 <vQueueAddToRegistry+0x18>
 800188c:	f842 1033 	str.w	r1, [r2, r3, lsl #3]
 8001890:	eb02 03c3 	add.w	r3, r2, r3, lsl #3
 8001894:	6058      	str	r0, [r3, #4]
 8001896:	bd10      	pop	{r4, pc}
 8001898:	3301      	adds	r3, #1
 800189a:	2b08      	cmp	r3, #8
 800189c:	d1f3      	bne.n	8001886 <vQueueAddToRegistry+0x6>
 800189e:	e7fa      	b.n	8001896 <vQueueAddToRegistry+0x16>
 80018a0:	200008a8 	.word	0x200008a8

080018a4 <vQueueWaitForMessageRestricted>:
 80018a4:	b570      	push	{r4, r5, r6, lr}
 80018a6:	4604      	mov	r4, r0
 80018a8:	460d      	mov	r5, r1
 80018aa:	4616      	mov	r6, r2
 80018ac:	f000 ff0a 	bl	80026c4 <vPortEnterCritical>
 80018b0:	f894 3044 	ldrb.w	r3, [r4, #68]	; 0x44
 80018b4:	2bff      	cmp	r3, #255	; 0xff
 80018b6:	bf04      	itt	eq
 80018b8:	2300      	moveq	r3, #0
 80018ba:	f884 3044 	strbeq.w	r3, [r4, #68]	; 0x44
 80018be:	f894 3045 	ldrb.w	r3, [r4, #69]	; 0x45
 80018c2:	2bff      	cmp	r3, #255	; 0xff
 80018c4:	bf04      	itt	eq
 80018c6:	2300      	moveq	r3, #0
 80018c8:	f884 3045 	strbeq.w	r3, [r4, #69]	; 0x45
 80018cc:	f000 ff1a 	bl	8002704 <vPortExitCritical>
 80018d0:	6ba3      	ldr	r3, [r4, #56]	; 0x38
 80018d2:	b92b      	cbnz	r3, 80018e0 <vQueueWaitForMessageRestricted+0x3c>
 80018d4:	4632      	mov	r2, r6
 80018d6:	4629      	mov	r1, r5
 80018d8:	f104 0024 	add.w	r0, r4, #36	; 0x24
 80018dc:	f000 fbbe 	bl	800205c <vTaskPlaceOnEventListRestricted>
 80018e0:	4620      	mov	r0, r4
 80018e2:	e8bd 4070 	ldmia.w	sp!, {r4, r5, r6, lr}
 80018e6:	f7ff bd54 	b.w	8001392 <prvUnlockQueue>
	...

080018ec <prvAddNewTaskToReadyList>:
 80018ec:	e92d 41f0 	stmdb	sp!, {r4, r5, r6, r7, r8, lr}
 80018f0:	4604      	mov	r4, r0
 80018f2:	f000 fee7 	bl	80026c4 <vPortEnterCritical>
 80018f6:	4b30      	ldr	r3, [pc, #192]	; (80019b8 <prvAddNewTaskToReadyList+0xcc>)
 80018f8:	4e30      	ldr	r6, [pc, #192]	; (80019bc <prvAddNewTaskToReadyList+0xd0>)
 80018fa:	681a      	ldr	r2, [r3, #0]
 80018fc:	4f30      	ldr	r7, [pc, #192]	; (80019c0 <prvAddNewTaskToReadyList+0xd4>)
 80018fe:	3201      	adds	r2, #1
 8001900:	601a      	str	r2, [r3, #0]
 8001902:	6835      	ldr	r5, [r6, #0]
 8001904:	2d00      	cmp	r5, #0
 8001906:	d14b      	bne.n	80019a0 <prvAddNewTaskToReadyList+0xb4>
 8001908:	6034      	str	r4, [r6, #0]
 800190a:	681b      	ldr	r3, [r3, #0]
 800190c:	2b01      	cmp	r3, #1
 800190e:	d11f      	bne.n	8001950 <prvAddNewTaskToReadyList+0x64>
 8001910:	46b8      	mov	r8, r7
 8001912:	4640      	mov	r0, r8
 8001914:	3501      	adds	r5, #1
 8001916:	f7ff fca7 	bl	8001268 <vListInitialise>
 800191a:	2d38      	cmp	r5, #56	; 0x38
 800191c:	f108 0814 	add.w	r8, r8, #20
 8001920:	d1f7      	bne.n	8001912 <prvAddNewTaskToReadyList+0x26>
 8001922:	f8df 80a0 	ldr.w	r8, [pc, #160]	; 80019c4 <prvAddNewTaskToReadyList+0xd8>
 8001926:	4d28      	ldr	r5, [pc, #160]	; (80019c8 <prvAddNewTaskToReadyList+0xdc>)
 8001928:	4640      	mov	r0, r8
 800192a:	f7ff fc9d 	bl	8001268 <vListInitialise>
 800192e:	4628      	mov	r0, r5
 8001930:	f7ff fc9a 	bl	8001268 <vListInitialise>
 8001934:	4825      	ldr	r0, [pc, #148]	; (80019cc <prvAddNewTaskToReadyList+0xe0>)
 8001936:	f7ff fc97 	bl	8001268 <vListInitialise>
 800193a:	4825      	ldr	r0, [pc, #148]	; (80019d0 <prvAddNewTaskToReadyList+0xe4>)
 800193c:	f7ff fc94 	bl	8001268 <vListInitialise>
 8001940:	4824      	ldr	r0, [pc, #144]	; (80019d4 <prvAddNewTaskToReadyList+0xe8>)
 8001942:	f7ff fc91 	bl	8001268 <vListInitialise>
 8001946:	4b24      	ldr	r3, [pc, #144]	; (80019d8 <prvAddNewTaskToReadyList+0xec>)
 8001948:	f8c3 8000 	str.w	r8, [r3]
 800194c:	4b23      	ldr	r3, [pc, #140]	; (80019dc <prvAddNewTaskToReadyList+0xf0>)
 800194e:	601d      	str	r5, [r3, #0]
 8001950:	2014      	movs	r0, #20
 8001952:	4a23      	ldr	r2, [pc, #140]	; (80019e0 <prvAddNewTaskToReadyList+0xf4>)
 8001954:	6813      	ldr	r3, [r2, #0]
 8001956:	3301      	adds	r3, #1
 8001958:	6013      	str	r3, [r2, #0]
 800195a:	4a22      	ldr	r2, [pc, #136]	; (80019e4 <prvAddNewTaskToReadyList+0xf8>)
 800195c:	6463      	str	r3, [r4, #68]	; 0x44
 800195e:	6811      	ldr	r1, [r2, #0]
 8001960:	6ae3      	ldr	r3, [r4, #44]	; 0x2c
 8001962:	428b      	cmp	r3, r1
 8001964:	fb00 7003 	mla	r0, r0, r3, r7
 8001968:	f104 0104 	add.w	r1, r4, #4
 800196c:	bf88      	it	hi
 800196e:	6013      	strhi	r3, [r2, #0]
 8001970:	f7ff fc88 	bl	8001284 <vListInsertEnd>
 8001974:	f000 fec6 	bl	8002704 <vPortExitCritical>
 8001978:	4b1b      	ldr	r3, [pc, #108]	; (80019e8 <prvAddNewTaskToReadyList+0xfc>)
 800197a:	681b      	ldr	r3, [r3, #0]
 800197c:	b173      	cbz	r3, 800199c <prvAddNewTaskToReadyList+0xb0>
 800197e:	6833      	ldr	r3, [r6, #0]
 8001980:	6ada      	ldr	r2, [r3, #44]	; 0x2c
 8001982:	6ae3      	ldr	r3, [r4, #44]	; 0x2c
 8001984:	429a      	cmp	r2, r3
 8001986:	d209      	bcs.n	800199c <prvAddNewTaskToReadyList+0xb0>
 8001988:	f04f 23e0 	mov.w	r3, #3758153728	; 0xe000e000
 800198c:	f04f 5280 	mov.w	r2, #268435456	; 0x10000000
 8001990:	f8c3 2d04 	str.w	r2, [r3, #3332]	; 0xd04
 8001994:	f3bf 8f4f 	dsb	sy
 8001998:	f3bf 8f6f 	isb	sy
 800199c:	e8bd 81f0 	ldmia.w	sp!, {r4, r5, r6, r7, r8, pc}
 80019a0:	4b11      	ldr	r3, [pc, #68]	; (80019e8 <prvAddNewTaskToReadyList+0xfc>)
 80019a2:	681b      	ldr	r3, [r3, #0]
 80019a4:	2b00      	cmp	r3, #0
 80019a6:	d1d3      	bne.n	8001950 <prvAddNewTaskToReadyList+0x64>
 80019a8:	6833      	ldr	r3, [r6, #0]
 80019aa:	6ada      	ldr	r2, [r3, #44]	; 0x2c
 80019ac:	6ae3      	ldr	r3, [r4, #44]	; 0x2c
 80019ae:	429a      	cmp	r2, r3
 80019b0:	bf98      	it	ls
 80019b2:	6034      	strls	r4, [r6, #0]
 80019b4:	e7cc      	b.n	8001950 <prvAddNewTaskToReadyList+0x64>
 80019b6:	bf00      	nop
 80019b8:	20000d54 	.word	0x20000d54
 80019bc:	200008e8 	.word	0x200008e8
 80019c0:	200008f4 	.word	0x200008f4
 80019c4:	20000d6c 	.word	0x20000d6c
 80019c8:	20000d80 	.word	0x20000d80
 80019cc:	20000d9c 	.word	0x20000d9c
 80019d0:	20000dc8 	.word	0x20000dc8
 80019d4:	20000db4 	.word	0x20000db4
 80019d8:	200008ec 	.word	0x200008ec
 80019dc:	200008f0 	.word	0x200008f0
 80019e0:	20000d64 	.word	0x20000d64
 80019e4:	20000d68 	.word	0x20000d68
 80019e8:	20000db0 	.word	0x20000db0

080019ec <prvAddCurrentTaskToDelayedList>:
 80019ec:	b5f8      	push	{r3, r4, r5, r6, r7, lr}
 80019ee:	4606      	mov	r6, r0
 80019f0:	4b14      	ldr	r3, [pc, #80]	; (8001a44 <prvAddCurrentTaskToDelayedList+0x58>)
 80019f2:	4d15      	ldr	r5, [pc, #84]	; (8001a48 <prvAddCurrentTaskToDelayedList+0x5c>)
 80019f4:	681c      	ldr	r4, [r3, #0]
 80019f6:	6828      	ldr	r0, [r5, #0]
 80019f8:	460f      	mov	r7, r1
 80019fa:	3004      	adds	r0, #4
 80019fc:	f7ff fc65 	bl	80012ca <uxListRemove>
 8001a00:	1c73      	adds	r3, r6, #1
 8001a02:	d107      	bne.n	8001a14 <prvAddCurrentTaskToDelayedList+0x28>
 8001a04:	b137      	cbz	r7, 8001a14 <prvAddCurrentTaskToDelayedList+0x28>
 8001a06:	6829      	ldr	r1, [r5, #0]
 8001a08:	4810      	ldr	r0, [pc, #64]	; (8001a4c <prvAddCurrentTaskToDelayedList+0x60>)
 8001a0a:	3104      	adds	r1, #4
 8001a0c:	e8bd 40f8 	ldmia.w	sp!, {r3, r4, r5, r6, r7, lr}
 8001a10:	f7ff bc38 	b.w	8001284 <vListInsertEnd>
 8001a14:	682b      	ldr	r3, [r5, #0]
 8001a16:	19a4      	adds	r4, r4, r6
 8001a18:	605c      	str	r4, [r3, #4]
 8001a1a:	d307      	bcc.n	8001a2c <prvAddCurrentTaskToDelayedList+0x40>
 8001a1c:	4b0c      	ldr	r3, [pc, #48]	; (8001a50 <prvAddCurrentTaskToDelayedList+0x64>)
 8001a1e:	6818      	ldr	r0, [r3, #0]
 8001a20:	6829      	ldr	r1, [r5, #0]
 8001a22:	e8bd 40f8 	ldmia.w	sp!, {r3, r4, r5, r6, r7, lr}
 8001a26:	3104      	adds	r1, #4
 8001a28:	f7ff bc38 	b.w	800129c <vListInsert>
 8001a2c:	4b09      	ldr	r3, [pc, #36]	; (8001a54 <prvAddCurrentTaskToDelayedList+0x68>)
 8001a2e:	6818      	ldr	r0, [r3, #0]
 8001a30:	6829      	ldr	r1, [r5, #0]
 8001a32:	3104      	adds	r1, #4
 8001a34:	f7ff fc32 	bl	800129c <vListInsert>
 8001a38:	4b07      	ldr	r3, [pc, #28]	; (8001a58 <prvAddCurrentTaskToDelayedList+0x6c>)
 8001a3a:	681a      	ldr	r2, [r3, #0]
 8001a3c:	42a2      	cmp	r2, r4
 8001a3e:	bf88      	it	hi
 8001a40:	601c      	strhi	r4, [r3, #0]
 8001a42:	bdf8      	pop	{r3, r4, r5, r6, r7, pc}
 8001a44:	20000ddc 	.word	0x20000ddc
 8001a48:	200008e8 	.word	0x200008e8
 8001a4c:	20000db4 	.word	0x20000db4
 8001a50:	200008f0 	.word	0x200008f0
 8001a54:	200008ec 	.word	0x200008ec
 8001a58:	20000d94 	.word	0x20000d94

08001a5c <prvResetNextTaskUnblockTime>:
 8001a5c:	4a06      	ldr	r2, [pc, #24]	; (8001a78 <prvResetNextTaskUnblockTime+0x1c>)
 8001a5e:	6813      	ldr	r3, [r2, #0]
 8001a60:	6819      	ldr	r1, [r3, #0]
 8001a62:	4b06      	ldr	r3, [pc, #24]	; (8001a7c <prvResetNextTaskUnblockTime+0x20>)
 8001a64:	b919      	cbnz	r1, 8001a6e <prvResetNextTaskUnblockTime+0x12>
 8001a66:	f04f 32ff 	mov.w	r2, #4294967295
 8001a6a:	601a      	str	r2, [r3, #0]
 8001a6c:	4770      	bx	lr
 8001a6e:	6812      	ldr	r2, [r2, #0]
 8001a70:	68d2      	ldr	r2, [r2, #12]
 8001a72:	68d2      	ldr	r2, [r2, #12]
 8001a74:	6852      	ldr	r2, [r2, #4]
 8001a76:	e7f8      	b.n	8001a6a <prvResetNextTaskUnblockTime+0xe>
 8001a78:	200008ec 	.word	0x200008ec
 8001a7c:	20000d94 	.word	0x20000d94

08001a80 <prvDeleteTCB>:
 8001a80:	b510      	push	{r4, lr}
 8001a82:	4604      	mov	r4, r0
 8001a84:	3054      	adds	r0, #84	; 0x54
 8001a86:	f001 f969 	bl	8002d5c <_reclaim_reent>
 8001a8a:	f894 30b9 	ldrb.w	r3, [r4, #185]	; 0xb9
 8001a8e:	b93b      	cbnz	r3, 8001aa0 <prvDeleteTCB+0x20>
 8001a90:	6b20      	ldr	r0, [r4, #48]	; 0x30
 8001a92:	f000 ffd5 	bl	8002a40 <vPortFree>
 8001a96:	4620      	mov	r0, r4
 8001a98:	e8bd 4010 	ldmia.w	sp!, {r4, lr}
 8001a9c:	f000 bfd0 	b.w	8002a40 <vPortFree>
 8001aa0:	2b01      	cmp	r3, #1
 8001aa2:	d0f8      	beq.n	8001a96 <prvDeleteTCB+0x16>
 8001aa4:	2b02      	cmp	r3, #2
 8001aa6:	d008      	beq.n	8001aba <prvDeleteTCB+0x3a>
 8001aa8:	f04f 0350 	mov.w	r3, #80	; 0x50
 8001aac:	f383 8811 	msr	BASEPRI, r3
 8001ab0:	f3bf 8f6f 	isb	sy
 8001ab4:	f3bf 8f4f 	dsb	sy
 8001ab8:	e7fe      	b.n	8001ab8 <prvDeleteTCB+0x38>
 8001aba:	bd10      	pop	{r4, pc}

08001abc <prvIdleTask>:
 8001abc:	b580      	push	{r7, lr}
 8001abe:	4c13      	ldr	r4, [pc, #76]	; (8001b0c <prvIdleTask+0x50>)
 8001ac0:	4f13      	ldr	r7, [pc, #76]	; (8001b10 <prvIdleTask+0x54>)
 8001ac2:	4d14      	ldr	r5, [pc, #80]	; (8001b14 <prvIdleTask+0x58>)
 8001ac4:	6823      	ldr	r3, [r4, #0]
 8001ac6:	b973      	cbnz	r3, 8001ae6 <prvIdleTask+0x2a>
 8001ac8:	4b13      	ldr	r3, [pc, #76]	; (8001b18 <prvIdleTask+0x5c>)
 8001aca:	681b      	ldr	r3, [r3, #0]
 8001acc:	2b01      	cmp	r3, #1
 8001ace:	d9f8      	bls.n	8001ac2 <prvIdleTask+0x6>
 8001ad0:	f04f 23e0 	mov.w	r3, #3758153728	; 0xe000e000
 8001ad4:	f04f 5280 	mov.w	r2, #268435456	; 0x10000000
 8001ad8:	f8c3 2d04 	str.w	r2, [r3, #3332]	; 0xd04
 8001adc:	f3bf 8f4f 	dsb	sy
 8001ae0:	f3bf 8f6f 	isb	sy
 8001ae4:	e7ed      	b.n	8001ac2 <prvIdleTask+0x6>
 8001ae6:	f000 fded 	bl	80026c4 <vPortEnterCritical>
 8001aea:	68fb      	ldr	r3, [r7, #12]
 8001aec:	68de      	ldr	r6, [r3, #12]
 8001aee:	1d30      	adds	r0, r6, #4
 8001af0:	f7ff fbeb 	bl	80012ca <uxListRemove>
 8001af4:	682b      	ldr	r3, [r5, #0]
 8001af6:	3b01      	subs	r3, #1
 8001af8:	602b      	str	r3, [r5, #0]
 8001afa:	6823      	ldr	r3, [r4, #0]
 8001afc:	3b01      	subs	r3, #1
 8001afe:	6023      	str	r3, [r4, #0]
 8001b00:	f000 fe00 	bl	8002704 <vPortExitCritical>
 8001b04:	4630      	mov	r0, r6
 8001b06:	f7ff ffbb 	bl	8001a80 <prvDeleteTCB>
 8001b0a:	e7db      	b.n	8001ac4 <prvIdleTask+0x8>
 8001b0c:	20000d58 	.word	0x20000d58
 8001b10:	20000dc8 	.word	0x20000dc8
 8001b14:	20000d54 	.word	0x20000d54
 8001b18:	200008f4 	.word	0x200008f4

08001b1c <prvInitialiseNewTask.constprop.0>:
 8001b1c:	e92d 47f0 	stmdb	sp!, {r4, r5, r6, r7, r8, r9, sl, lr}
 8001b20:	460d      	mov	r5, r1
 8001b22:	e9dd 8409 	ldrd	r8, r4, [sp, #36]	; 0x24
 8001b26:	ea4f 0982 	mov.w	r9, r2, lsl #2
 8001b2a:	464a      	mov	r2, r9
 8001b2c:	4606      	mov	r6, r0
 8001b2e:	21a5      	movs	r1, #165	; 0xa5
 8001b30:	6b20      	ldr	r0, [r4, #48]	; 0x30
 8001b32:	461f      	mov	r7, r3
 8001b34:	f001 f820 	bl	8002b78 <memset>
 8001b38:	6b22      	ldr	r2, [r4, #48]	; 0x30
 8001b3a:	f1a9 0904 	sub.w	r9, r9, #4
 8001b3e:	4491      	add	r9, r2
 8001b40:	1e6b      	subs	r3, r5, #1
 8001b42:	f029 0907 	bic.w	r9, r9, #7
 8001b46:	f104 0234 	add.w	r2, r4, #52	; 0x34
 8001b4a:	350f      	adds	r5, #15
 8001b4c:	f813 1f01 	ldrb.w	r1, [r3, #1]!
 8001b50:	f802 1b01 	strb.w	r1, [r2], #1
 8001b54:	b109      	cbz	r1, 8001b5a <prvInitialiseNewTask.constprop.0+0x3e>
 8001b56:	42ab      	cmp	r3, r5
 8001b58:	d1f8      	bne.n	8001b4c <prvInitialiseNewTask.constprop.0+0x30>
 8001b5a:	9d08      	ldr	r5, [sp, #32]
 8001b5c:	f04f 0a00 	mov.w	sl, #0
 8001b60:	2d37      	cmp	r5, #55	; 0x37
 8001b62:	bf28      	it	cs
 8001b64:	2537      	movcs	r5, #55	; 0x37
 8001b66:	1d20      	adds	r0, r4, #4
 8001b68:	e9c4 5a13 	strd	r5, sl, [r4, #76]	; 0x4c
 8001b6c:	62e5      	str	r5, [r4, #44]	; 0x2c
 8001b6e:	f884 a043 	strb.w	sl, [r4, #67]	; 0x43
 8001b72:	f7ff fb84 	bl	800127e <vListInitialiseItem>
 8001b76:	f1c5 0538 	rsb	r5, r5, #56	; 0x38
 8001b7a:	f104 0018 	add.w	r0, r4, #24
 8001b7e:	f7ff fb7e 	bl	800127e <vListInitialiseItem>
 8001b82:	2260      	movs	r2, #96	; 0x60
 8001b84:	4651      	mov	r1, sl
 8001b86:	f8c4 a0b4 	str.w	sl, [r4, #180]	; 0xb4
 8001b8a:	6124      	str	r4, [r4, #16]
 8001b8c:	61a5      	str	r5, [r4, #24]
 8001b8e:	6264      	str	r4, [r4, #36]	; 0x24
 8001b90:	f884 a0b8 	strb.w	sl, [r4, #184]	; 0xb8
 8001b94:	f104 0054 	add.w	r0, r4, #84	; 0x54
 8001b98:	f000 ffee 	bl	8002b78 <memset>
 8001b9c:	4b09      	ldr	r3, [pc, #36]	; (8001bc4 <prvInitialiseNewTask.constprop.0+0xa8>)
 8001b9e:	463a      	mov	r2, r7
 8001ba0:	65a3      	str	r3, [r4, #88]	; 0x58
 8001ba2:	4b09      	ldr	r3, [pc, #36]	; (8001bc8 <prvInitialiseNewTask.constprop.0+0xac>)
 8001ba4:	4631      	mov	r1, r6
 8001ba6:	65e3      	str	r3, [r4, #92]	; 0x5c
 8001ba8:	4b08      	ldr	r3, [pc, #32]	; (8001bcc <prvInitialiseNewTask.constprop.0+0xb0>)
 8001baa:	4648      	mov	r0, r9
 8001bac:	6623      	str	r3, [r4, #96]	; 0x60
 8001bae:	f000 fd65 	bl	800267c <pxPortInitialiseStack>
 8001bb2:	6020      	str	r0, [r4, #0]
 8001bb4:	f1b8 0f00 	cmp.w	r8, #0
 8001bb8:	d001      	beq.n	8001bbe <prvInitialiseNewTask.constprop.0+0xa2>
 8001bba:	f8c8 4000 	str.w	r4, [r8]
 8001bbe:	e8bd 87f0 	ldmia.w	sp!, {r4, r5, r6, r7, r8, r9, sl, pc}
 8001bc2:	bf00      	nop
 8001bc4:	08002f7c 	.word	0x08002f7c
 8001bc8:	08002f9c 	.word	0x08002f9c
 8001bcc:	08002f5c 	.word	0x08002f5c

08001bd0 <xTaskCreateStatic>:
 8001bd0:	b570      	push	{r4, r5, r6, lr}
 8001bd2:	b086      	sub	sp, #24
 8001bd4:	e9dd 540b 	ldrd	r5, r4, [sp, #44]	; 0x2c
 8001bd8:	b945      	cbnz	r5, 8001bec <xTaskCreateStatic+0x1c>
 8001bda:	f04f 0350 	mov.w	r3, #80	; 0x50
 8001bde:	f383 8811 	msr	BASEPRI, r3
 8001be2:	f3bf 8f6f 	isb	sy
 8001be6:	f3bf 8f4f 	dsb	sy
 8001bea:	e7fe      	b.n	8001bea <xTaskCreateStatic+0x1a>
 8001bec:	b944      	cbnz	r4, 8001c00 <xTaskCreateStatic+0x30>
 8001bee:	f04f 0350 	mov.w	r3, #80	; 0x50
 8001bf2:	f383 8811 	msr	BASEPRI, r3
 8001bf6:	f3bf 8f6f 	isb	sy
 8001bfa:	f3bf 8f4f 	dsb	sy
 8001bfe:	e7fe      	b.n	8001bfe <xTaskCreateStatic+0x2e>
 8001c00:	26bc      	movs	r6, #188	; 0xbc
 8001c02:	9605      	str	r6, [sp, #20]
 8001c04:	9e05      	ldr	r6, [sp, #20]
 8001c06:	2ebc      	cmp	r6, #188	; 0xbc
 8001c08:	d008      	beq.n	8001c1c <xTaskCreateStatic+0x4c>
 8001c0a:	f04f 0350 	mov.w	r3, #80	; 0x50
 8001c0e:	f383 8811 	msr	BASEPRI, r3
 8001c12:	f3bf 8f6f 	isb	sy
 8001c16:	f3bf 8f4f 	dsb	sy
 8001c1a:	e7fe      	b.n	8001c1a <xTaskCreateStatic+0x4a>
 8001c1c:	6325      	str	r5, [r4, #48]	; 0x30
 8001c1e:	2502      	movs	r5, #2
 8001c20:	f884 50b9 	strb.w	r5, [r4, #185]	; 0xb9
 8001c24:	ad04      	add	r5, sp, #16
 8001c26:	9501      	str	r5, [sp, #4]
 8001c28:	9d0a      	ldr	r5, [sp, #40]	; 0x28
 8001c2a:	9402      	str	r4, [sp, #8]
 8001c2c:	9500      	str	r5, [sp, #0]
 8001c2e:	f7ff ff75 	bl	8001b1c <prvInitialiseNewTask.constprop.0>
 8001c32:	4620      	mov	r0, r4
 8001c34:	f7ff fe5a 	bl	80018ec <prvAddNewTaskToReadyList>
 8001c38:	9804      	ldr	r0, [sp, #16]
 8001c3a:	b006      	add	sp, #24
 8001c3c:	bd70      	pop	{r4, r5, r6, pc}

08001c3e <xTaskCreate>:
 8001c3e:	e92d 43f0 	stmdb	sp!, {r4, r5, r6, r7, r8, r9, lr}
 8001c42:	4607      	mov	r7, r0
 8001c44:	b085      	sub	sp, #20
 8001c46:	0090      	lsls	r0, r2, #2
 8001c48:	4688      	mov	r8, r1
 8001c4a:	4616      	mov	r6, r2
 8001c4c:	4699      	mov	r9, r3
 8001c4e:	f000 fe67 	bl	8002920 <pvPortMalloc>
 8001c52:	4605      	mov	r5, r0
 8001c54:	b1e8      	cbz	r0, 8001c92 <xTaskCreate+0x54>
 8001c56:	20bc      	movs	r0, #188	; 0xbc
 8001c58:	f000 fe62 	bl	8002920 <pvPortMalloc>
 8001c5c:	4604      	mov	r4, r0
 8001c5e:	b1a8      	cbz	r0, 8001c8c <xTaskCreate+0x4e>
 8001c60:	2300      	movs	r3, #0
 8001c62:	f880 30b9 	strb.w	r3, [r0, #185]	; 0xb9
 8001c66:	9b0d      	ldr	r3, [sp, #52]	; 0x34
 8001c68:	6305      	str	r5, [r0, #48]	; 0x30
 8001c6a:	9301      	str	r3, [sp, #4]
 8001c6c:	9b0c      	ldr	r3, [sp, #48]	; 0x30
 8001c6e:	4632      	mov	r2, r6
 8001c70:	4641      	mov	r1, r8
 8001c72:	9002      	str	r0, [sp, #8]
 8001c74:	9300      	str	r3, [sp, #0]
 8001c76:	4638      	mov	r0, r7
 8001c78:	464b      	mov	r3, r9
 8001c7a:	f7ff ff4f 	bl	8001b1c <prvInitialiseNewTask.constprop.0>
 8001c7e:	4620      	mov	r0, r4
 8001c80:	f7ff fe34 	bl	80018ec <prvAddNewTaskToReadyList>
 8001c84:	2001      	movs	r0, #1
 8001c86:	b005      	add	sp, #20
 8001c88:	e8bd 83f0 	ldmia.w	sp!, {r4, r5, r6, r7, r8, r9, pc}
 8001c8c:	4628      	mov	r0, r5
 8001c8e:	f000 fed7 	bl	8002a40 <vPortFree>
 8001c92:	f04f 30ff 	mov.w	r0, #4294967295
 8001c96:	e7f6      	b.n	8001c86 <xTaskCreate+0x48>

08001c98 <vTaskStartScheduler>:
 8001c98:	b510      	push	{r4, lr}
 8001c9a:	2400      	movs	r4, #0
 8001c9c:	b088      	sub	sp, #32
 8001c9e:	aa07      	add	r2, sp, #28
 8001ca0:	a906      	add	r1, sp, #24
 8001ca2:	a805      	add	r0, sp, #20
 8001ca4:	e9cd 4405 	strd	r4, r4, [sp, #20]
 8001ca8:	f7ff fac6 	bl	8001238 <vApplicationGetIdleTaskMemory>
 8001cac:	9b05      	ldr	r3, [sp, #20]
 8001cae:	9a07      	ldr	r2, [sp, #28]
 8001cb0:	9302      	str	r3, [sp, #8]
 8001cb2:	9b06      	ldr	r3, [sp, #24]
 8001cb4:	4919      	ldr	r1, [pc, #100]	; (8001d1c <vTaskStartScheduler+0x84>)
 8001cb6:	e9cd 4300 	strd	r4, r3, [sp]
 8001cba:	4819      	ldr	r0, [pc, #100]	; (8001d20 <vTaskStartScheduler+0x88>)
 8001cbc:	4623      	mov	r3, r4
 8001cbe:	f7ff ff87 	bl	8001bd0 <xTaskCreateStatic>
 8001cc2:	b340      	cbz	r0, 8001d16 <vTaskStartScheduler+0x7e>
 8001cc4:	f000 fb1c 	bl	8002300 <xTimerCreateTimerTask>
 8001cc8:	2801      	cmp	r0, #1
 8001cca:	d119      	bne.n	8001d00 <vTaskStartScheduler+0x68>
 8001ccc:	f04f 0350 	mov.w	r3, #80	; 0x50
 8001cd0:	f383 8811 	msr	BASEPRI, r3
 8001cd4:	f3bf 8f6f 	isb	sy
 8001cd8:	f3bf 8f4f 	dsb	sy
 8001cdc:	4b11      	ldr	r3, [pc, #68]	; (8001d24 <vTaskStartScheduler+0x8c>)
 8001cde:	4a12      	ldr	r2, [pc, #72]	; (8001d28 <vTaskStartScheduler+0x90>)
 8001ce0:	681b      	ldr	r3, [r3, #0]
 8001ce2:	3354      	adds	r3, #84	; 0x54
 8001ce4:	6013      	str	r3, [r2, #0]
 8001ce6:	f04f 32ff 	mov.w	r2, #4294967295
 8001cea:	4b10      	ldr	r3, [pc, #64]	; (8001d2c <vTaskStartScheduler+0x94>)
 8001cec:	601a      	str	r2, [r3, #0]
 8001cee:	4b10      	ldr	r3, [pc, #64]	; (8001d30 <vTaskStartScheduler+0x98>)
 8001cf0:	6018      	str	r0, [r3, #0]
 8001cf2:	4b10      	ldr	r3, [pc, #64]	; (8001d34 <vTaskStartScheduler+0x9c>)
 8001cf4:	601c      	str	r4, [r3, #0]
 8001cf6:	b008      	add	sp, #32
 8001cf8:	e8bd 4010 	ldmia.w	sp!, {r4, lr}
 8001cfc:	f000 bd62 	b.w	80027c4 <xPortStartScheduler>
 8001d00:	3001      	adds	r0, #1
 8001d02:	d108      	bne.n	8001d16 <vTaskStartScheduler+0x7e>
 8001d04:	f04f 0350 	mov.w	r3, #80	; 0x50
 8001d08:	f383 8811 	msr	BASEPRI, r3
 8001d0c:	f3bf 8f6f 	isb	sy
 8001d10:	f3bf 8f4f 	dsb	sy
 8001d14:	e7fe      	b.n	8001d14 <vTaskStartScheduler+0x7c>
 8001d16:	b008      	add	sp, #32
 8001d18:	bd10      	pop	{r4, pc}
 8001d1a:	bf00      	nop
 8001d1c:	08002f49 	.word	0x08002f49
 8001d20:	08001abd 	.word	0x08001abd
 8001d24:	200008e8 	.word	0x200008e8
 8001d28:	20000010 	.word	0x20000010
 8001d2c:	20000d94 	.word	0x20000d94
 8001d30:	20000db0 	.word	0x20000db0
 8001d34:	20000ddc 	.word	0x20000ddc

08001d38 <vTaskSuspendAll>:
 8001d38:	4a02      	ldr	r2, [pc, #8]	; (8001d44 <vTaskSuspendAll+0xc>)
 8001d3a:	6813      	ldr	r3, [r2, #0]
 8001d3c:	3301      	adds	r3, #1
 8001d3e:	6013      	str	r3, [r2, #0]
 8001d40:	4770      	bx	lr
 8001d42:	bf00      	nop
 8001d44:	20000d60 	.word	0x20000d60

08001d48 <xTaskGetTickCount>:
 8001d48:	4b01      	ldr	r3, [pc, #4]	; (8001d50 <xTaskGetTickCount+0x8>)
 8001d4a:	6818      	ldr	r0, [r3, #0]
 8001d4c:	4770      	bx	lr
 8001d4e:	bf00      	nop
 8001d50:	20000ddc 	.word	0x20000ddc

08001d54 <xTaskIncrementTick>:
 8001d54:	e92d 4ff8 	stmdb	sp!, {r3, r4, r5, r6, r7, r8, r9, sl, fp, lr}
 8001d58:	4b3b      	ldr	r3, [pc, #236]	; (8001e48 <xTaskIncrementTick+0xf4>)
 8001d5a:	681b      	ldr	r3, [r3, #0]
 8001d5c:	2b00      	cmp	r3, #0
 8001d5e:	d16d      	bne.n	8001e3c <xTaskIncrementTick+0xe8>
 8001d60:	4b3a      	ldr	r3, [pc, #232]	; (8001e4c <xTaskIncrementTick+0xf8>)
 8001d62:	681d      	ldr	r5, [r3, #0]
 8001d64:	3501      	adds	r5, #1
 8001d66:	601d      	str	r5, [r3, #0]
 8001d68:	b9bd      	cbnz	r5, 8001d9a <xTaskIncrementTick+0x46>
 8001d6a:	4b39      	ldr	r3, [pc, #228]	; (8001e50 <xTaskIncrementTick+0xfc>)
 8001d6c:	681a      	ldr	r2, [r3, #0]
 8001d6e:	6812      	ldr	r2, [r2, #0]
 8001d70:	b142      	cbz	r2, 8001d84 <xTaskIncrementTick+0x30>
 8001d72:	f04f 0350 	mov.w	r3, #80	; 0x50
 8001d76:	f383 8811 	msr	BASEPRI, r3
 8001d7a:	f3bf 8f6f 	isb	sy
 8001d7e:	f3bf 8f4f 	dsb	sy
 8001d82:	e7fe      	b.n	8001d82 <xTaskIncrementTick+0x2e>
 8001d84:	4a33      	ldr	r2, [pc, #204]	; (8001e54 <xTaskIncrementTick+0x100>)
 8001d86:	6819      	ldr	r1, [r3, #0]
 8001d88:	6810      	ldr	r0, [r2, #0]
 8001d8a:	6018      	str	r0, [r3, #0]
 8001d8c:	6011      	str	r1, [r2, #0]
 8001d8e:	4a32      	ldr	r2, [pc, #200]	; (8001e58 <xTaskIncrementTick+0x104>)
 8001d90:	6813      	ldr	r3, [r2, #0]
 8001d92:	3301      	adds	r3, #1
 8001d94:	6013      	str	r3, [r2, #0]
 8001d96:	f7ff fe61 	bl	8001a5c <prvResetNextTaskUnblockTime>
 8001d9a:	4e30      	ldr	r6, [pc, #192]	; (8001e5c <xTaskIncrementTick+0x108>)
 8001d9c:	2400      	movs	r4, #0
 8001d9e:	6833      	ldr	r3, [r6, #0]
 8001da0:	4f2f      	ldr	r7, [pc, #188]	; (8001e60 <xTaskIncrementTick+0x10c>)
 8001da2:	42ab      	cmp	r3, r5
 8001da4:	d910      	bls.n	8001dc8 <xTaskIncrementTick+0x74>
 8001da6:	2214      	movs	r2, #20
 8001da8:	4b2e      	ldr	r3, [pc, #184]	; (8001e64 <xTaskIncrementTick+0x110>)
 8001daa:	681b      	ldr	r3, [r3, #0]
 8001dac:	6adb      	ldr	r3, [r3, #44]	; 0x2c
 8001dae:	4353      	muls	r3, r2
 8001db0:	58fb      	ldr	r3, [r7, r3]
 8001db2:	2b02      	cmp	r3, #2
 8001db4:	bf28      	it	cs
 8001db6:	2401      	movcs	r4, #1
 8001db8:	4b2b      	ldr	r3, [pc, #172]	; (8001e68 <xTaskIncrementTick+0x114>)
 8001dba:	681b      	ldr	r3, [r3, #0]
 8001dbc:	2b00      	cmp	r3, #0
 8001dbe:	bf0c      	ite	eq
 8001dc0:	4620      	moveq	r0, r4
 8001dc2:	2001      	movne	r0, #1
 8001dc4:	e8bd 8ff8 	ldmia.w	sp!, {r3, r4, r5, r6, r7, r8, r9, sl, fp, pc}
 8001dc8:	f8df 9084 	ldr.w	r9, [pc, #132]	; 8001e50 <xTaskIncrementTick+0xfc>
 8001dcc:	f8df a09c 	ldr.w	sl, [pc, #156]	; 8001e6c <xTaskIncrementTick+0x118>
 8001dd0:	f8d9 3000 	ldr.w	r3, [r9]
 8001dd4:	681b      	ldr	r3, [r3, #0]
 8001dd6:	b91b      	cbnz	r3, 8001de0 <xTaskIncrementTick+0x8c>
 8001dd8:	f04f 33ff 	mov.w	r3, #4294967295
 8001ddc:	6033      	str	r3, [r6, #0]
 8001dde:	e7e2      	b.n	8001da6 <xTaskIncrementTick+0x52>
 8001de0:	f8d9 3000 	ldr.w	r3, [r9]
 8001de4:	68db      	ldr	r3, [r3, #12]
 8001de6:	f8d3 b00c 	ldr.w	fp, [r3, #12]
 8001dea:	f8db 2004 	ldr.w	r2, [fp, #4]
 8001dee:	4295      	cmp	r5, r2
 8001df0:	d201      	bcs.n	8001df6 <xTaskIncrementTick+0xa2>
 8001df2:	6032      	str	r2, [r6, #0]
 8001df4:	e7d7      	b.n	8001da6 <xTaskIncrementTick+0x52>
 8001df6:	f10b 0804 	add.w	r8, fp, #4
 8001dfa:	4640      	mov	r0, r8
 8001dfc:	f7ff fa65 	bl	80012ca <uxListRemove>
 8001e00:	f8db 2028 	ldr.w	r2, [fp, #40]	; 0x28
 8001e04:	b11a      	cbz	r2, 8001e0e <xTaskIncrementTick+0xba>
 8001e06:	f10b 0018 	add.w	r0, fp, #24
 8001e0a:	f7ff fa5e 	bl	80012ca <uxListRemove>
 8001e0e:	2314      	movs	r3, #20
 8001e10:	f8db 002c 	ldr.w	r0, [fp, #44]	; 0x2c
 8001e14:	f8da 2000 	ldr.w	r2, [sl]
 8001e18:	4641      	mov	r1, r8
 8001e1a:	4290      	cmp	r0, r2
 8001e1c:	bf88      	it	hi
 8001e1e:	f8ca 0000 	strhi.w	r0, [sl]
 8001e22:	fb03 7000 	mla	r0, r3, r0, r7
 8001e26:	f7ff fa2d 	bl	8001284 <vListInsertEnd>
 8001e2a:	4b0e      	ldr	r3, [pc, #56]	; (8001e64 <xTaskIncrementTick+0x110>)
 8001e2c:	f8db 202c 	ldr.w	r2, [fp, #44]	; 0x2c
 8001e30:	6819      	ldr	r1, [r3, #0]
 8001e32:	6acb      	ldr	r3, [r1, #44]	; 0x2c
 8001e34:	429a      	cmp	r2, r3
 8001e36:	bf28      	it	cs
 8001e38:	2401      	movcs	r4, #1
 8001e3a:	e7c9      	b.n	8001dd0 <xTaskIncrementTick+0x7c>
 8001e3c:	4a0c      	ldr	r2, [pc, #48]	; (8001e70 <xTaskIncrementTick+0x11c>)
 8001e3e:	2400      	movs	r4, #0
 8001e40:	6813      	ldr	r3, [r2, #0]
 8001e42:	3301      	adds	r3, #1
 8001e44:	6013      	str	r3, [r2, #0]
 8001e46:	e7b7      	b.n	8001db8 <xTaskIncrementTick+0x64>
 8001e48:	20000d60 	.word	0x20000d60
 8001e4c:	20000ddc 	.word	0x20000ddc
 8001e50:	200008ec 	.word	0x200008ec
 8001e54:	200008f0 	.word	0x200008f0
 8001e58:	20000d98 	.word	0x20000d98
 8001e5c:	20000d94 	.word	0x20000d94
 8001e60:	200008f4 	.word	0x200008f4
 8001e64:	200008e8 	.word	0x200008e8
 8001e68:	20000de0 	.word	0x20000de0
 8001e6c:	20000d68 	.word	0x20000d68
 8001e70:	20000d5c 	.word	0x20000d5c

08001e74 <xTaskResumeAll>:
 8001e74:	e92d 41f0 	stmdb	sp!, {r4, r5, r6, r7, r8, lr}
 8001e78:	4c30      	ldr	r4, [pc, #192]	; (8001f3c <xTaskResumeAll+0xc8>)
 8001e7a:	6823      	ldr	r3, [r4, #0]
 8001e7c:	b943      	cbnz	r3, 8001e90 <xTaskResumeAll+0x1c>
 8001e7e:	f04f 0350 	mov.w	r3, #80	; 0x50
 8001e82:	f383 8811 	msr	BASEPRI, r3
 8001e86:	f3bf 8f6f 	isb	sy
 8001e8a:	f3bf 8f4f 	dsb	sy
 8001e8e:	e7fe      	b.n	8001e8e <xTaskResumeAll+0x1a>
 8001e90:	f000 fc18 	bl	80026c4 <vPortEnterCritical>
 8001e94:	6823      	ldr	r3, [r4, #0]
 8001e96:	3b01      	subs	r3, #1
 8001e98:	6023      	str	r3, [r4, #0]
 8001e9a:	6824      	ldr	r4, [r4, #0]
 8001e9c:	b12c      	cbz	r4, 8001eaa <xTaskResumeAll+0x36>
 8001e9e:	2400      	movs	r4, #0
 8001ea0:	f000 fc30 	bl	8002704 <vPortExitCritical>
 8001ea4:	4620      	mov	r0, r4
 8001ea6:	e8bd 81f0 	ldmia.w	sp!, {r4, r5, r6, r7, r8, pc}
 8001eaa:	4b25      	ldr	r3, [pc, #148]	; (8001f40 <xTaskResumeAll+0xcc>)
 8001eac:	681b      	ldr	r3, [r3, #0]
 8001eae:	2b00      	cmp	r3, #0
 8001eb0:	d0f5      	beq.n	8001e9e <xTaskResumeAll+0x2a>
 8001eb2:	4d24      	ldr	r5, [pc, #144]	; (8001f44 <xTaskResumeAll+0xd0>)
 8001eb4:	4e24      	ldr	r6, [pc, #144]	; (8001f48 <xTaskResumeAll+0xd4>)
 8001eb6:	f8df 8094 	ldr.w	r8, [pc, #148]	; 8001f4c <xTaskResumeAll+0xd8>
 8001eba:	e01d      	b.n	8001ef8 <xTaskResumeAll+0x84>
 8001ebc:	68eb      	ldr	r3, [r5, #12]
 8001ebe:	68dc      	ldr	r4, [r3, #12]
 8001ec0:	1d27      	adds	r7, r4, #4
 8001ec2:	f104 0018 	add.w	r0, r4, #24
 8001ec6:	f7ff fa00 	bl	80012ca <uxListRemove>
 8001eca:	4638      	mov	r0, r7
 8001ecc:	f7ff f9fd 	bl	80012ca <uxListRemove>
 8001ed0:	2014      	movs	r0, #20
 8001ed2:	6ae3      	ldr	r3, [r4, #44]	; 0x2c
 8001ed4:	6832      	ldr	r2, [r6, #0]
 8001ed6:	fb00 8003 	mla	r0, r0, r3, r8
 8001eda:	4293      	cmp	r3, r2
 8001edc:	4639      	mov	r1, r7
 8001ede:	bf88      	it	hi
 8001ee0:	6033      	strhi	r3, [r6, #0]
 8001ee2:	f7ff f9cf 	bl	8001284 <vListInsertEnd>
 8001ee6:	4b1a      	ldr	r3, [pc, #104]	; (8001f50 <xTaskResumeAll+0xdc>)
 8001ee8:	6ae2      	ldr	r2, [r4, #44]	; 0x2c
 8001eea:	681b      	ldr	r3, [r3, #0]
 8001eec:	6adb      	ldr	r3, [r3, #44]	; 0x2c
 8001eee:	429a      	cmp	r2, r3
 8001ef0:	d302      	bcc.n	8001ef8 <xTaskResumeAll+0x84>
 8001ef2:	2201      	movs	r2, #1
 8001ef4:	4b17      	ldr	r3, [pc, #92]	; (8001f54 <xTaskResumeAll+0xe0>)
 8001ef6:	601a      	str	r2, [r3, #0]
 8001ef8:	682b      	ldr	r3, [r5, #0]
 8001efa:	2b00      	cmp	r3, #0
 8001efc:	d1de      	bne.n	8001ebc <xTaskResumeAll+0x48>
 8001efe:	b10c      	cbz	r4, 8001f04 <xTaskResumeAll+0x90>
 8001f00:	f7ff fdac 	bl	8001a5c <prvResetNextTaskUnblockTime>
 8001f04:	4d14      	ldr	r5, [pc, #80]	; (8001f58 <xTaskResumeAll+0xe4>)
 8001f06:	682c      	ldr	r4, [r5, #0]
 8001f08:	b144      	cbz	r4, 8001f1c <xTaskResumeAll+0xa8>
 8001f0a:	2701      	movs	r7, #1
 8001f0c:	4e11      	ldr	r6, [pc, #68]	; (8001f54 <xTaskResumeAll+0xe0>)
 8001f0e:	f7ff ff21 	bl	8001d54 <xTaskIncrementTick>
 8001f12:	b100      	cbz	r0, 8001f16 <xTaskResumeAll+0xa2>
 8001f14:	6037      	str	r7, [r6, #0]
 8001f16:	3c01      	subs	r4, #1
 8001f18:	d1f9      	bne.n	8001f0e <xTaskResumeAll+0x9a>
 8001f1a:	602c      	str	r4, [r5, #0]
 8001f1c:	4b0d      	ldr	r3, [pc, #52]	; (8001f54 <xTaskResumeAll+0xe0>)
 8001f1e:	681b      	ldr	r3, [r3, #0]
 8001f20:	2b00      	cmp	r3, #0
 8001f22:	d0bc      	beq.n	8001e9e <xTaskResumeAll+0x2a>
 8001f24:	f04f 23e0 	mov.w	r3, #3758153728	; 0xe000e000
 8001f28:	f04f 5280 	mov.w	r2, #268435456	; 0x10000000
 8001f2c:	f8c3 2d04 	str.w	r2, [r3, #3332]	; 0xd04
 8001f30:	f3bf 8f4f 	dsb	sy
 8001f34:	f3bf 8f6f 	isb	sy
 8001f38:	2401      	movs	r4, #1
 8001f3a:	e7b1      	b.n	8001ea0 <xTaskResumeAll+0x2c>
 8001f3c:	20000d60 	.word	0x20000d60
 8001f40:	20000d54 	.word	0x20000d54
 8001f44:	20000d9c 	.word	0x20000d9c
 8001f48:	20000d68 	.word	0x20000d68
 8001f4c:	200008f4 	.word	0x200008f4
 8001f50:	200008e8 	.word	0x200008e8
 8001f54:	20000de0 	.word	0x20000de0
 8001f58:	20000d5c 	.word	0x20000d5c

08001f5c <vTaskDelay>:
 8001f5c:	b508      	push	{r3, lr}
 8001f5e:	b950      	cbnz	r0, 8001f76 <vTaskDelay+0x1a>
 8001f60:	f04f 23e0 	mov.w	r3, #3758153728	; 0xe000e000
 8001f64:	f04f 5280 	mov.w	r2, #268435456	; 0x10000000
 8001f68:	f8c3 2d04 	str.w	r2, [r3, #3332]	; 0xd04
 8001f6c:	f3bf 8f4f 	dsb	sy
 8001f70:	f3bf 8f6f 	isb	sy
 8001f74:	bd08      	pop	{r3, pc}
 8001f76:	4b0a      	ldr	r3, [pc, #40]	; (8001fa0 <vTaskDelay+0x44>)
 8001f78:	6819      	ldr	r1, [r3, #0]
 8001f7a:	b141      	cbz	r1, 8001f8e <vTaskDelay+0x32>
 8001f7c:	f04f 0350 	mov.w	r3, #80	; 0x50
 8001f80:	f383 8811 	msr	BASEPRI, r3
 8001f84:	f3bf 8f6f 	isb	sy
 8001f88:	f3bf 8f4f 	dsb	sy
 8001f8c:	e7fe      	b.n	8001f8c <vTaskDelay+0x30>
 8001f8e:	f7ff fed3 	bl	8001d38 <vTaskSuspendAll>
 8001f92:	f7ff fd2b 	bl	80019ec <prvAddCurrentTaskToDelayedList>
 8001f96:	f7ff ff6d 	bl	8001e74 <xTaskResumeAll>
 8001f9a:	2800      	cmp	r0, #0
 8001f9c:	d0e0      	beq.n	8001f60 <vTaskDelay+0x4>
 8001f9e:	e7e9      	b.n	8001f74 <vTaskDelay+0x18>
 8001fa0:	20000d60 	.word	0x20000d60

08001fa4 <vTaskSwitchContext>:
 8001fa4:	4b1a      	ldr	r3, [pc, #104]	; (8002010 <vTaskSwitchContext+0x6c>)
 8001fa6:	b570      	push	{r4, r5, r6, lr}
 8001fa8:	681a      	ldr	r2, [r3, #0]
 8001faa:	4b1a      	ldr	r3, [pc, #104]	; (8002014 <vTaskSwitchContext+0x70>)
 8001fac:	b112      	cbz	r2, 8001fb4 <vTaskSwitchContext+0x10>
 8001fae:	2201      	movs	r2, #1
 8001fb0:	601a      	str	r2, [r3, #0]
 8001fb2:	bd70      	pop	{r4, r5, r6, pc}
 8001fb4:	2614      	movs	r6, #20
 8001fb6:	4d18      	ldr	r5, [pc, #96]	; (8002018 <vTaskSwitchContext+0x74>)
 8001fb8:	601a      	str	r2, [r3, #0]
 8001fba:	682a      	ldr	r2, [r5, #0]
 8001fbc:	4917      	ldr	r1, [pc, #92]	; (800201c <vTaskSwitchContext+0x78>)
 8001fbe:	fb06 f302 	mul.w	r3, r6, r2
 8001fc2:	58cc      	ldr	r4, [r1, r3]
 8001fc4:	18c8      	adds	r0, r1, r3
 8001fc6:	b1b4      	cbz	r4, 8001ff6 <vTaskSwitchContext+0x52>
 8001fc8:	6844      	ldr	r4, [r0, #4]
 8001fca:	3308      	adds	r3, #8
 8001fcc:	6864      	ldr	r4, [r4, #4]
 8001fce:	440b      	add	r3, r1
 8001fd0:	429c      	cmp	r4, r3
 8001fd2:	bf08      	it	eq
 8001fd4:	6863      	ldreq	r3, [r4, #4]
 8001fd6:	6044      	str	r4, [r0, #4]
 8001fd8:	bf08      	it	eq
 8001fda:	6043      	streq	r3, [r0, #4]
 8001fdc:	2314      	movs	r3, #20
 8001fde:	fb03 1102 	mla	r1, r3, r2, r1
 8001fe2:	684b      	ldr	r3, [r1, #4]
 8001fe4:	68d9      	ldr	r1, [r3, #12]
 8001fe6:	4b0e      	ldr	r3, [pc, #56]	; (8002020 <vTaskSwitchContext+0x7c>)
 8001fe8:	6019      	str	r1, [r3, #0]
 8001fea:	602a      	str	r2, [r5, #0]
 8001fec:	681b      	ldr	r3, [r3, #0]
 8001fee:	4a0d      	ldr	r2, [pc, #52]	; (8002024 <vTaskSwitchContext+0x80>)
 8001ff0:	3354      	adds	r3, #84	; 0x54
 8001ff2:	6013      	str	r3, [r2, #0]
 8001ff4:	e7dd      	b.n	8001fb2 <vTaskSwitchContext+0xe>
 8001ff6:	b942      	cbnz	r2, 800200a <vTaskSwitchContext+0x66>
 8001ff8:	f04f 0350 	mov.w	r3, #80	; 0x50
 8001ffc:	f383 8811 	msr	BASEPRI, r3
 8002000:	f3bf 8f6f 	isb	sy
 8002004:	f3bf 8f4f 	dsb	sy
 8002008:	e7fe      	b.n	8002008 <vTaskSwitchContext+0x64>
 800200a:	3a01      	subs	r2, #1
 800200c:	e7d7      	b.n	8001fbe <vTaskSwitchContext+0x1a>
 800200e:	bf00      	nop
 8002010:	20000d60 	.word	0x20000d60
 8002014:	20000de0 	.word	0x20000de0
 8002018:	20000d68 	.word	0x20000d68
 800201c:	200008f4 	.word	0x200008f4
 8002020:	200008e8 	.word	0x200008e8
 8002024:	20000010 	.word	0x20000010

08002028 <vTaskPlaceOnEventList>:
 8002028:	b510      	push	{r4, lr}
 800202a:	460c      	mov	r4, r1
 800202c:	b940      	cbnz	r0, 8002040 <vTaskPlaceOnEventList+0x18>
 800202e:	f04f 0350 	mov.w	r3, #80	; 0x50
 8002032:	f383 8811 	msr	BASEPRI, r3
 8002036:	f3bf 8f6f 	isb	sy
 800203a:	f3bf 8f4f 	dsb	sy
 800203e:	e7fe      	b.n	800203e <vTaskPlaceOnEventList+0x16>
 8002040:	4b05      	ldr	r3, [pc, #20]	; (8002058 <vTaskPlaceOnEventList+0x30>)
 8002042:	6819      	ldr	r1, [r3, #0]
 8002044:	3118      	adds	r1, #24
 8002046:	f7ff f929 	bl	800129c <vListInsert>
 800204a:	4620      	mov	r0, r4
 800204c:	e8bd 4010 	ldmia.w	sp!, {r4, lr}
 8002050:	2101      	movs	r1, #1
 8002052:	f7ff bccb 	b.w	80019ec <prvAddCurrentTaskToDelayedList>
 8002056:	bf00      	nop
 8002058:	200008e8 	.word	0x200008e8

0800205c <vTaskPlaceOnEventListRestricted>:
 800205c:	b538      	push	{r3, r4, r5, lr}
 800205e:	460d      	mov	r5, r1
 8002060:	4614      	mov	r4, r2
 8002062:	b940      	cbnz	r0, 8002076 <vTaskPlaceOnEventListRestricted+0x1a>
 8002064:	f04f 0350 	mov.w	r3, #80	; 0x50
 8002068:	f383 8811 	msr	BASEPRI, r3
 800206c:	f3bf 8f6f 	isb	sy
 8002070:	f3bf 8f4f 	dsb	sy
 8002074:	e7fe      	b.n	8002074 <vTaskPlaceOnEventListRestricted+0x18>
 8002076:	4b08      	ldr	r3, [pc, #32]	; (8002098 <vTaskPlaceOnEventListRestricted+0x3c>)
 8002078:	6819      	ldr	r1, [r3, #0]
 800207a:	3118      	adds	r1, #24
 800207c:	f7ff f902 	bl	8001284 <vListInsertEnd>
 8002080:	2c00      	cmp	r4, #0
 8002082:	4621      	mov	r1, r4
 8002084:	bf08      	it	eq
 8002086:	4628      	moveq	r0, r5
 8002088:	e8bd 4038 	ldmia.w	sp!, {r3, r4, r5, lr}
 800208c:	bf18      	it	ne
 800208e:	f04f 30ff 	movne.w	r0, #4294967295
 8002092:	f7ff bcab 	b.w	80019ec <prvAddCurrentTaskToDelayedList>
 8002096:	bf00      	nop
 8002098:	200008e8 	.word	0x200008e8

0800209c <xTaskRemoveFromEventList>:
 800209c:	b538      	push	{r3, r4, r5, lr}
 800209e:	68c3      	ldr	r3, [r0, #12]
 80020a0:	68dc      	ldr	r4, [r3, #12]
 80020a2:	b944      	cbnz	r4, 80020b6 <xTaskRemoveFromEventList+0x1a>
 80020a4:	f04f 0350 	mov.w	r3, #80	; 0x50
 80020a8:	f383 8811 	msr	BASEPRI, r3
 80020ac:	f3bf 8f6f 	isb	sy
 80020b0:	f3bf 8f4f 	dsb	sy
 80020b4:	e7fe      	b.n	80020b4 <xTaskRemoveFromEventList+0x18>
 80020b6:	f104 0518 	add.w	r5, r4, #24
 80020ba:	4628      	mov	r0, r5
 80020bc:	f7ff f905 	bl	80012ca <uxListRemove>
 80020c0:	4b10      	ldr	r3, [pc, #64]	; (8002104 <xTaskRemoveFromEventList+0x68>)
 80020c2:	681b      	ldr	r3, [r3, #0]
 80020c4:	b9db      	cbnz	r3, 80020fe <xTaskRemoveFromEventList+0x62>
 80020c6:	1d25      	adds	r5, r4, #4
 80020c8:	4628      	mov	r0, r5
 80020ca:	f7ff f8fe 	bl	80012ca <uxListRemove>
 80020ce:	4a0e      	ldr	r2, [pc, #56]	; (8002108 <xTaskRemoveFromEventList+0x6c>)
 80020d0:	2014      	movs	r0, #20
 80020d2:	6811      	ldr	r1, [r2, #0]
 80020d4:	6ae3      	ldr	r3, [r4, #44]	; 0x2c
 80020d6:	428b      	cmp	r3, r1
 80020d8:	4629      	mov	r1, r5
 80020da:	bf88      	it	hi
 80020dc:	6013      	strhi	r3, [r2, #0]
 80020de:	4a0b      	ldr	r2, [pc, #44]	; (800210c <xTaskRemoveFromEventList+0x70>)
 80020e0:	fb00 2003 	mla	r0, r0, r3, r2
 80020e4:	f7ff f8ce 	bl	8001284 <vListInsertEnd>
 80020e8:	4b09      	ldr	r3, [pc, #36]	; (8002110 <xTaskRemoveFromEventList+0x74>)
 80020ea:	6ae2      	ldr	r2, [r4, #44]	; 0x2c
 80020ec:	681b      	ldr	r3, [r3, #0]
 80020ee:	6adb      	ldr	r3, [r3, #44]	; 0x2c
 80020f0:	429a      	cmp	r2, r3
 80020f2:	bf85      	ittet	hi
 80020f4:	2001      	movhi	r0, #1
 80020f6:	4b07      	ldrhi	r3, [pc, #28]	; (8002114 <xTaskRemoveFromEventList+0x78>)
 80020f8:	2000      	movls	r0, #0
 80020fa:	6018      	strhi	r0, [r3, #0]
 80020fc:	bd38      	pop	{r3, r4, r5, pc}
 80020fe:	4629      	mov	r1, r5
 8002100:	4805      	ldr	r0, [pc, #20]	; (8002118 <xTaskRemoveFromEventList+0x7c>)
 8002102:	e7ef      	b.n	80020e4 <xTaskRemoveFromEventList+0x48>
 8002104:	20000d60 	.word	0x20000d60
 8002108:	20000d68 	.word	0x20000d68
 800210c:	200008f4 	.word	0x200008f4
 8002110:	200008e8 	.word	0x200008e8
 8002114:	20000de0 	.word	0x20000de0
 8002118:	20000d9c 	.word	0x20000d9c

0800211c <vTaskInternalSetTimeOutState>:
 800211c:	4b03      	ldr	r3, [pc, #12]	; (800212c <vTaskInternalSetTimeOutState+0x10>)
 800211e:	681b      	ldr	r3, [r3, #0]
 8002120:	6003      	str	r3, [r0, #0]
 8002122:	4b03      	ldr	r3, [pc, #12]	; (8002130 <vTaskInternalSetTimeOutState+0x14>)
 8002124:	681b      	ldr	r3, [r3, #0]
 8002126:	6043      	str	r3, [r0, #4]
 8002128:	4770      	bx	lr
 800212a:	bf00      	nop
 800212c:	20000d98 	.word	0x20000d98
 8002130:	20000ddc 	.word	0x20000ddc

08002134 <xTaskCheckForTimeOut>:
 8002134:	b570      	push	{r4, r5, r6, lr}
 8002136:	460c      	mov	r4, r1
 8002138:	4605      	mov	r5, r0
 800213a:	b940      	cbnz	r0, 800214e <xTaskCheckForTimeOut+0x1a>
 800213c:	f04f 0350 	mov.w	r3, #80	; 0x50
 8002140:	f383 8811 	msr	BASEPRI, r3
 8002144:	f3bf 8f6f 	isb	sy
 8002148:	f3bf 8f4f 	dsb	sy
 800214c:	e7fe      	b.n	800214c <xTaskCheckForTimeOut+0x18>
 800214e:	b941      	cbnz	r1, 8002162 <xTaskCheckForTimeOut+0x2e>
 8002150:	f04f 0350 	mov.w	r3, #80	; 0x50
 8002154:	f383 8811 	msr	BASEPRI, r3
 8002158:	f3bf 8f6f 	isb	sy
 800215c:	f3bf 8f4f 	dsb	sy
 8002160:	e7fe      	b.n	8002160 <xTaskCheckForTimeOut+0x2c>
 8002162:	f000 faaf 	bl	80026c4 <vPortEnterCritical>
 8002166:	4b0f      	ldr	r3, [pc, #60]	; (80021a4 <xTaskCheckForTimeOut+0x70>)
 8002168:	6819      	ldr	r1, [r3, #0]
 800216a:	6823      	ldr	r3, [r4, #0]
 800216c:	1c5a      	adds	r2, r3, #1
 800216e:	d010      	beq.n	8002192 <xTaskCheckForTimeOut+0x5e>
 8002170:	480d      	ldr	r0, [pc, #52]	; (80021a8 <xTaskCheckForTimeOut+0x74>)
 8002172:	682e      	ldr	r6, [r5, #0]
 8002174:	6800      	ldr	r0, [r0, #0]
 8002176:	686a      	ldr	r2, [r5, #4]
 8002178:	4286      	cmp	r6, r0
 800217a:	d001      	beq.n	8002180 <xTaskCheckForTimeOut+0x4c>
 800217c:	428a      	cmp	r2, r1
 800217e:	d90f      	bls.n	80021a0 <xTaskCheckForTimeOut+0x6c>
 8002180:	1a88      	subs	r0, r1, r2
 8002182:	4283      	cmp	r3, r0
 8002184:	d90a      	bls.n	800219c <xTaskCheckForTimeOut+0x68>
 8002186:	1a5b      	subs	r3, r3, r1
 8002188:	4413      	add	r3, r2
 800218a:	4628      	mov	r0, r5
 800218c:	6023      	str	r3, [r4, #0]
 800218e:	f7ff ffc5 	bl	800211c <vTaskInternalSetTimeOutState>
 8002192:	2400      	movs	r4, #0
 8002194:	f000 fab6 	bl	8002704 <vPortExitCritical>
 8002198:	4620      	mov	r0, r4
 800219a:	bd70      	pop	{r4, r5, r6, pc}
 800219c:	2300      	movs	r3, #0
 800219e:	6023      	str	r3, [r4, #0]
 80021a0:	2401      	movs	r4, #1
 80021a2:	e7f7      	b.n	8002194 <xTaskCheckForTimeOut+0x60>
 80021a4:	20000ddc 	.word	0x20000ddc
 80021a8:	20000d98 	.word	0x20000d98

080021ac <vTaskMissedYield>:
 80021ac:	2201      	movs	r2, #1
 80021ae:	4b01      	ldr	r3, [pc, #4]	; (80021b4 <vTaskMissedYield+0x8>)
 80021b0:	601a      	str	r2, [r3, #0]
 80021b2:	4770      	bx	lr
 80021b4:	20000de0 	.word	0x20000de0

080021b8 <xTaskGetSchedulerState>:
 80021b8:	4b05      	ldr	r3, [pc, #20]	; (80021d0 <xTaskGetSchedulerState+0x18>)
 80021ba:	681b      	ldr	r3, [r3, #0]
 80021bc:	b133      	cbz	r3, 80021cc <xTaskGetSchedulerState+0x14>
 80021be:	4b05      	ldr	r3, [pc, #20]	; (80021d4 <xTaskGetSchedulerState+0x1c>)
 80021c0:	681b      	ldr	r3, [r3, #0]
 80021c2:	2b00      	cmp	r3, #0
 80021c4:	bf0c      	ite	eq
 80021c6:	2002      	moveq	r0, #2
 80021c8:	2000      	movne	r0, #0
 80021ca:	4770      	bx	lr
 80021cc:	2001      	movs	r0, #1
 80021ce:	4770      	bx	lr
 80021d0:	20000db0 	.word	0x20000db0
 80021d4:	20000d60 	.word	0x20000d60

080021d8 <xTaskPriorityDisinherit>:
 80021d8:	b538      	push	{r3, r4, r5, lr}
 80021da:	b908      	cbnz	r0, 80021e0 <xTaskPriorityDisinherit+0x8>
 80021dc:	2000      	movs	r0, #0
 80021de:	bd38      	pop	{r3, r4, r5, pc}
 80021e0:	4b1b      	ldr	r3, [pc, #108]	; (8002250 <xTaskPriorityDisinherit+0x78>)
 80021e2:	681c      	ldr	r4, [r3, #0]
 80021e4:	4284      	cmp	r4, r0
 80021e6:	d008      	beq.n	80021fa <xTaskPriorityDisinherit+0x22>
 80021e8:	f04f 0350 	mov.w	r3, #80	; 0x50
 80021ec:	f383 8811 	msr	BASEPRI, r3
 80021f0:	f3bf 8f6f 	isb	sy
 80021f4:	f3bf 8f4f 	dsb	sy
 80021f8:	e7fe      	b.n	80021f8 <xTaskPriorityDisinherit+0x20>
 80021fa:	6d23      	ldr	r3, [r4, #80]	; 0x50
 80021fc:	b943      	cbnz	r3, 8002210 <xTaskPriorityDisinherit+0x38>
 80021fe:	f04f 0350 	mov.w	r3, #80	; 0x50
 8002202:	f383 8811 	msr	BASEPRI, r3
 8002206:	f3bf 8f6f 	isb	sy
 800220a:	f3bf 8f4f 	dsb	sy
 800220e:	e7fe      	b.n	800220e <xTaskPriorityDisinherit+0x36>
 8002210:	6ae1      	ldr	r1, [r4, #44]	; 0x2c
 8002212:	6ce2      	ldr	r2, [r4, #76]	; 0x4c
 8002214:	3b01      	subs	r3, #1
 8002216:	4291      	cmp	r1, r2
 8002218:	6523      	str	r3, [r4, #80]	; 0x50
 800221a:	d0df      	beq.n	80021dc <xTaskPriorityDisinherit+0x4>
 800221c:	2b00      	cmp	r3, #0
 800221e:	d1dd      	bne.n	80021dc <xTaskPriorityDisinherit+0x4>
 8002220:	1d25      	adds	r5, r4, #4
 8002222:	4628      	mov	r0, r5
 8002224:	f7ff f851 	bl	80012ca <uxListRemove>
 8002228:	2014      	movs	r0, #20
 800222a:	6ce3      	ldr	r3, [r4, #76]	; 0x4c
 800222c:	f1c3 0238 	rsb	r2, r3, #56	; 0x38
 8002230:	61a2      	str	r2, [r4, #24]
 8002232:	4a08      	ldr	r2, [pc, #32]	; (8002254 <xTaskPriorityDisinherit+0x7c>)
 8002234:	62e3      	str	r3, [r4, #44]	; 0x2c
 8002236:	6811      	ldr	r1, [r2, #0]
 8002238:	428b      	cmp	r3, r1
 800223a:	bf88      	it	hi
 800223c:	6013      	strhi	r3, [r2, #0]
 800223e:	4a06      	ldr	r2, [pc, #24]	; (8002258 <xTaskPriorityDisinherit+0x80>)
 8002240:	4629      	mov	r1, r5
 8002242:	fb00 2003 	mla	r0, r0, r3, r2
 8002246:	f7ff f81d 	bl	8001284 <vListInsertEnd>
 800224a:	2001      	movs	r0, #1
 800224c:	e7c7      	b.n	80021de <xTaskPriorityDisinherit+0x6>
 800224e:	bf00      	nop
 8002250:	200008e8 	.word	0x200008e8
 8002254:	20000d68 	.word	0x20000d68
 8002258:	200008f4 	.word	0x200008f4

0800225c <prvCheckForValidListAndQueue>:
 800225c:	b5f7      	push	{r0, r1, r2, r4, r5, r6, r7, lr}
 800225e:	4c11      	ldr	r4, [pc, #68]	; (80022a4 <prvCheckForValidListAndQueue+0x48>)
 8002260:	f000 fa30 	bl	80026c4 <vPortEnterCritical>
 8002264:	6825      	ldr	r5, [r4, #0]
 8002266:	b9bd      	cbnz	r5, 8002298 <prvCheckForValidListAndQueue+0x3c>
 8002268:	4f0f      	ldr	r7, [pc, #60]	; (80022a8 <prvCheckForValidListAndQueue+0x4c>)
 800226a:	4e10      	ldr	r6, [pc, #64]	; (80022ac <prvCheckForValidListAndQueue+0x50>)
 800226c:	4638      	mov	r0, r7
 800226e:	f7fe fffb 	bl	8001268 <vListInitialise>
 8002272:	4630      	mov	r0, r6
 8002274:	f7fe fff8 	bl	8001268 <vListInitialise>
 8002278:	4b0d      	ldr	r3, [pc, #52]	; (80022b0 <prvCheckForValidListAndQueue+0x54>)
 800227a:	2110      	movs	r1, #16
 800227c:	601f      	str	r7, [r3, #0]
 800227e:	4b0d      	ldr	r3, [pc, #52]	; (80022b4 <prvCheckForValidListAndQueue+0x58>)
 8002280:	200a      	movs	r0, #10
 8002282:	601e      	str	r6, [r3, #0]
 8002284:	4a0c      	ldr	r2, [pc, #48]	; (80022b8 <prvCheckForValidListAndQueue+0x5c>)
 8002286:	4b0d      	ldr	r3, [pc, #52]	; (80022bc <prvCheckForValidListAndQueue+0x60>)
 8002288:	9500      	str	r5, [sp, #0]
 800228a:	f7ff f8f9 	bl	8001480 <xQueueGenericCreateStatic>
 800228e:	6020      	str	r0, [r4, #0]
 8002290:	b110      	cbz	r0, 8002298 <prvCheckForValidListAndQueue+0x3c>
 8002292:	490b      	ldr	r1, [pc, #44]	; (80022c0 <prvCheckForValidListAndQueue+0x64>)
 8002294:	f7ff faf4 	bl	8001880 <vQueueAddToRegistry>
 8002298:	b003      	add	sp, #12
 800229a:	e8bd 40f0 	ldmia.w	sp!, {r4, r5, r6, r7, lr}
 800229e:	f000 ba31 	b.w	8002704 <vPortExitCritical>
 80022a2:	bf00      	nop
 80022a4:	20000f08 	.word	0x20000f08
 80022a8:	20000e8c 	.word	0x20000e8c
 80022ac:	20000ea0 	.word	0x20000ea0
 80022b0:	20000de4 	.word	0x20000de4
 80022b4:	20000de8 	.word	0x20000de8
 80022b8:	20000dec 	.word	0x20000dec
 80022bc:	20000eb8 	.word	0x20000eb8
 80022c0:	08002f4e 	.word	0x08002f4e

080022c4 <prvInsertTimerInActiveList>:
 80022c4:	4291      	cmp	r1, r2
 80022c6:	b508      	push	{r3, lr}
 80022c8:	6041      	str	r1, [r0, #4]
 80022ca:	6100      	str	r0, [r0, #16]
 80022cc:	d80a      	bhi.n	80022e4 <prvInsertTimerInActiveList+0x20>
 80022ce:	1ad2      	subs	r2, r2, r3
 80022d0:	6983      	ldr	r3, [r0, #24]
 80022d2:	429a      	cmp	r2, r3
 80022d4:	d20d      	bcs.n	80022f2 <prvInsertTimerInActiveList+0x2e>
 80022d6:	4b08      	ldr	r3, [pc, #32]	; (80022f8 <prvInsertTimerInActiveList+0x34>)
 80022d8:	1d01      	adds	r1, r0, #4
 80022da:	6818      	ldr	r0, [r3, #0]
 80022dc:	f7fe ffde 	bl	800129c <vListInsert>
 80022e0:	2000      	movs	r0, #0
 80022e2:	bd08      	pop	{r3, pc}
 80022e4:	429a      	cmp	r2, r3
 80022e6:	d201      	bcs.n	80022ec <prvInsertTimerInActiveList+0x28>
 80022e8:	4299      	cmp	r1, r3
 80022ea:	d202      	bcs.n	80022f2 <prvInsertTimerInActiveList+0x2e>
 80022ec:	4b03      	ldr	r3, [pc, #12]	; (80022fc <prvInsertTimerInActiveList+0x38>)
 80022ee:	1d01      	adds	r1, r0, #4
 80022f0:	e7f3      	b.n	80022da <prvInsertTimerInActiveList+0x16>
 80022f2:	2001      	movs	r0, #1
 80022f4:	e7f5      	b.n	80022e2 <prvInsertTimerInActiveList+0x1e>
 80022f6:	bf00      	nop
 80022f8:	20000de8 	.word	0x20000de8
 80022fc:	20000de4 	.word	0x20000de4

08002300 <xTimerCreateTimerTask>:
 8002300:	b510      	push	{r4, lr}
 8002302:	b088      	sub	sp, #32
 8002304:	f7ff ffaa 	bl	800225c <prvCheckForValidListAndQueue>
 8002308:	4b12      	ldr	r3, [pc, #72]	; (8002354 <xTimerCreateTimerTask+0x54>)
 800230a:	681b      	ldr	r3, [r3, #0]
 800230c:	b1b3      	cbz	r3, 800233c <xTimerCreateTimerTask+0x3c>
 800230e:	2400      	movs	r4, #0
 8002310:	aa07      	add	r2, sp, #28
 8002312:	a906      	add	r1, sp, #24
 8002314:	a805      	add	r0, sp, #20
 8002316:	e9cd 4405 	strd	r4, r4, [sp, #20]
 800231a:	f7fe ff99 	bl	8001250 <vApplicationGetTimerTaskMemory>
 800231e:	9b05      	ldr	r3, [sp, #20]
 8002320:	9a07      	ldr	r2, [sp, #28]
 8002322:	9302      	str	r3, [sp, #8]
 8002324:	9b06      	ldr	r3, [sp, #24]
 8002326:	490c      	ldr	r1, [pc, #48]	; (8002358 <xTimerCreateTimerTask+0x58>)
 8002328:	9301      	str	r3, [sp, #4]
 800232a:	2302      	movs	r3, #2
 800232c:	480b      	ldr	r0, [pc, #44]	; (800235c <xTimerCreateTimerTask+0x5c>)
 800232e:	9300      	str	r3, [sp, #0]
 8002330:	4623      	mov	r3, r4
 8002332:	f7ff fc4d 	bl	8001bd0 <xTaskCreateStatic>
 8002336:	4b0a      	ldr	r3, [pc, #40]	; (8002360 <xTimerCreateTimerTask+0x60>)
 8002338:	6018      	str	r0, [r3, #0]
 800233a:	b940      	cbnz	r0, 800234e <xTimerCreateTimerTask+0x4e>
 800233c:	f04f 0350 	mov.w	r3, #80	; 0x50
 8002340:	f383 8811 	msr	BASEPRI, r3
 8002344:	f3bf 8f6f 	isb	sy
 8002348:	f3bf 8f4f 	dsb	sy
 800234c:	e7fe      	b.n	800234c <xTimerCreateTimerTask+0x4c>
 800234e:	2001      	movs	r0, #1
 8002350:	b008      	add	sp, #32
 8002352:	bd10      	pop	{r4, pc}
 8002354:	20000f08 	.word	0x20000f08
 8002358:	08002f53 	.word	0x08002f53
 800235c:	08002465 	.word	0x08002465
 8002360:	20000f0c 	.word	0x20000f0c

08002364 <xTimerGenericCommand>:
 8002364:	b57f      	push	{r0, r1, r2, r3, r4, r5, r6, lr}
 8002366:	4616      	mov	r6, r2
 8002368:	4604      	mov	r4, r0
 800236a:	461a      	mov	r2, r3
 800236c:	b940      	cbnz	r0, 8002380 <xTimerGenericCommand+0x1c>
 800236e:	f04f 0350 	mov.w	r3, #80	; 0x50
 8002372:	f383 8811 	msr	BASEPRI, r3
 8002376:	f3bf 8f6f 	isb	sy
 800237a:	f3bf 8f4f 	dsb	sy
 800237e:	e7fe      	b.n	800237e <xTimerGenericCommand+0x1a>
 8002380:	4d0d      	ldr	r5, [pc, #52]	; (80023b8 <xTimerGenericCommand+0x54>)
 8002382:	6828      	ldr	r0, [r5, #0]
 8002384:	b180      	cbz	r0, 80023a8 <xTimerGenericCommand+0x44>
 8002386:	2905      	cmp	r1, #5
 8002388:	e9cd 1600 	strd	r1, r6, [sp]
 800238c:	9402      	str	r4, [sp, #8]
 800238e:	dc0d      	bgt.n	80023ac <xTimerGenericCommand+0x48>
 8002390:	f7ff ff12 	bl	80021b8 <xTaskGetSchedulerState>
 8002394:	2300      	movs	r3, #0
 8002396:	2802      	cmp	r0, #2
 8002398:	bf18      	it	ne
 800239a:	461a      	movne	r2, r3
 800239c:	4669      	mov	r1, sp
 800239e:	bf08      	it	eq
 80023a0:	9a08      	ldreq	r2, [sp, #32]
 80023a2:	6828      	ldr	r0, [r5, #0]
 80023a4:	f7ff f8b9 	bl	800151a <xQueueGenericSend>
 80023a8:	b004      	add	sp, #16
 80023aa:	bd70      	pop	{r4, r5, r6, pc}
 80023ac:	2300      	movs	r3, #0
 80023ae:	4669      	mov	r1, sp
 80023b0:	f7ff f966 	bl	8001680 <xQueueGenericSendFromISR>
 80023b4:	e7f8      	b.n	80023a8 <xTimerGenericCommand+0x44>
 80023b6:	bf00      	nop
 80023b8:	20000f08 	.word	0x20000f08

080023bc <prvSampleTimeNow>:
 80023bc:	e92d 4ff7 	stmdb	sp!, {r0, r1, r2, r4, r5, r6, r7, r8, r9, sl, fp, lr}
 80023c0:	4606      	mov	r6, r0
 80023c2:	f7ff fcc1 	bl	8001d48 <xTaskGetTickCount>
 80023c6:	f8df 8090 	ldr.w	r8, [pc, #144]	; 8002458 <prvSampleTimeNow+0x9c>
 80023ca:	4605      	mov	r5, r0
 80023cc:	f8d8 3000 	ldr.w	r3, [r8]
 80023d0:	4283      	cmp	r3, r0
 80023d2:	d93e      	bls.n	8002452 <prvSampleTimeNow+0x96>
 80023d4:	f04f 0900 	mov.w	r9, #0
 80023d8:	4f20      	ldr	r7, [pc, #128]	; (800245c <prvSampleTimeNow+0xa0>)
 80023da:	683b      	ldr	r3, [r7, #0]
 80023dc:	681a      	ldr	r2, [r3, #0]
 80023de:	b95a      	cbnz	r2, 80023f8 <prvSampleTimeNow+0x3c>
 80023e0:	4a1f      	ldr	r2, [pc, #124]	; (8002460 <prvSampleTimeNow+0xa4>)
 80023e2:	6811      	ldr	r1, [r2, #0]
 80023e4:	6013      	str	r3, [r2, #0]
 80023e6:	2301      	movs	r3, #1
 80023e8:	6039      	str	r1, [r7, #0]
 80023ea:	4628      	mov	r0, r5
 80023ec:	6033      	str	r3, [r6, #0]
 80023ee:	f8c8 5000 	str.w	r5, [r8]
 80023f2:	b003      	add	sp, #12
 80023f4:	e8bd 8ff0 	ldmia.w	sp!, {r4, r5, r6, r7, r8, r9, sl, fp, pc}
 80023f8:	68db      	ldr	r3, [r3, #12]
 80023fa:	68dc      	ldr	r4, [r3, #12]
 80023fc:	f8d3 a000 	ldr.w	sl, [r3]
 8002400:	f104 0b04 	add.w	fp, r4, #4
 8002404:	4658      	mov	r0, fp
 8002406:	f7fe ff60 	bl	80012ca <uxListRemove>
 800240a:	6a63      	ldr	r3, [r4, #36]	; 0x24
 800240c:	4620      	mov	r0, r4
 800240e:	4798      	blx	r3
 8002410:	69e3      	ldr	r3, [r4, #28]
 8002412:	2b01      	cmp	r3, #1
 8002414:	d1e1      	bne.n	80023da <prvSampleTimeNow+0x1e>
 8002416:	69a3      	ldr	r3, [r4, #24]
 8002418:	4453      	add	r3, sl
 800241a:	459a      	cmp	sl, r3
 800241c:	d206      	bcs.n	800242c <prvSampleTimeNow+0x70>
 800241e:	4659      	mov	r1, fp
 8002420:	6838      	ldr	r0, [r7, #0]
 8002422:	6063      	str	r3, [r4, #4]
 8002424:	6124      	str	r4, [r4, #16]
 8002426:	f7fe ff39 	bl	800129c <vListInsert>
 800242a:	e7d6      	b.n	80023da <prvSampleTimeNow+0x1e>
 800242c:	2300      	movs	r3, #0
 800242e:	4652      	mov	r2, sl
 8002430:	4619      	mov	r1, r3
 8002432:	4620      	mov	r0, r4
 8002434:	f8cd 9000 	str.w	r9, [sp]
 8002438:	f7ff ff94 	bl	8002364 <xTimerGenericCommand>
 800243c:	2800      	cmp	r0, #0
 800243e:	d1cc      	bne.n	80023da <prvSampleTimeNow+0x1e>
 8002440:	f04f 0350 	mov.w	r3, #80	; 0x50
 8002444:	f383 8811 	msr	BASEPRI, r3
 8002448:	f3bf 8f6f 	isb	sy
 800244c:	f3bf 8f4f 	dsb	sy
 8002450:	e7fe      	b.n	8002450 <prvSampleTimeNow+0x94>
 8002452:	2300      	movs	r3, #0
 8002454:	e7c9      	b.n	80023ea <prvSampleTimeNow+0x2e>
 8002456:	bf00      	nop
 8002458:	20000eb4 	.word	0x20000eb4
 800245c:	20000de4 	.word	0x20000de4
 8002460:	20000de8 	.word	0x20000de8

08002464 <prvTimerTask>:
 8002464:	e92d 43f0 	stmdb	sp!, {r4, r5, r6, r7, r8, r9, lr}
 8002468:	4e69      	ldr	r6, [pc, #420]	; (8002610 <prvTimerTask+0x1ac>)
 800246a:	4f6a      	ldr	r7, [pc, #424]	; (8002614 <prvTimerTask+0x1b0>)
 800246c:	b089      	sub	sp, #36	; 0x24
 800246e:	6833      	ldr	r3, [r6, #0]
 8002470:	681d      	ldr	r5, [r3, #0]
 8002472:	2d00      	cmp	r5, #0
 8002474:	d033      	beq.n	80024de <prvTimerTask+0x7a>
 8002476:	68db      	ldr	r3, [r3, #12]
 8002478:	f8d3 8000 	ldr.w	r8, [r3]
 800247c:	f7ff fc5c 	bl	8001d38 <vTaskSuspendAll>
 8002480:	a804      	add	r0, sp, #16
 8002482:	f7ff ff9b 	bl	80023bc <prvSampleTimeNow>
 8002486:	9c04      	ldr	r4, [sp, #16]
 8002488:	4681      	mov	r9, r0
 800248a:	2c00      	cmp	r4, #0
 800248c:	d175      	bne.n	800257a <prvTimerTask+0x116>
 800248e:	2d00      	cmp	r5, #0
 8002490:	d058      	beq.n	8002544 <prvTimerTask+0xe0>
 8002492:	4540      	cmp	r0, r8
 8002494:	d35c      	bcc.n	8002550 <prvTimerTask+0xec>
 8002496:	f7ff fced 	bl	8001e74 <xTaskResumeAll>
 800249a:	6833      	ldr	r3, [r6, #0]
 800249c:	68db      	ldr	r3, [r3, #12]
 800249e:	68dd      	ldr	r5, [r3, #12]
 80024a0:	1d28      	adds	r0, r5, #4
 80024a2:	f7fe ff12 	bl	80012ca <uxListRemove>
 80024a6:	69eb      	ldr	r3, [r5, #28]
 80024a8:	2b01      	cmp	r3, #1
 80024aa:	d11a      	bne.n	80024e2 <prvTimerTask+0x7e>
 80024ac:	69a9      	ldr	r1, [r5, #24]
 80024ae:	4643      	mov	r3, r8
 80024b0:	464a      	mov	r2, r9
 80024b2:	4628      	mov	r0, r5
 80024b4:	4441      	add	r1, r8
 80024b6:	f7ff ff05 	bl	80022c4 <prvInsertTimerInActiveList>
 80024ba:	b190      	cbz	r0, 80024e2 <prvTimerTask+0x7e>
 80024bc:	4623      	mov	r3, r4
 80024be:	4642      	mov	r2, r8
 80024c0:	4621      	mov	r1, r4
 80024c2:	4628      	mov	r0, r5
 80024c4:	9400      	str	r4, [sp, #0]
 80024c6:	f7ff ff4d 	bl	8002364 <xTimerGenericCommand>
 80024ca:	b950      	cbnz	r0, 80024e2 <prvTimerTask+0x7e>
 80024cc:	f04f 0350 	mov.w	r3, #80	; 0x50
 80024d0:	f383 8811 	msr	BASEPRI, r3
 80024d4:	f3bf 8f6f 	isb	sy
 80024d8:	f3bf 8f4f 	dsb	sy
 80024dc:	e7fe      	b.n	80024dc <prvTimerTask+0x78>
 80024de:	46a8      	mov	r8, r5
 80024e0:	e7cc      	b.n	800247c <prvTimerTask+0x18>
 80024e2:	4628      	mov	r0, r5
 80024e4:	6a6b      	ldr	r3, [r5, #36]	; 0x24
 80024e6:	4798      	blx	r3
 80024e8:	2500      	movs	r5, #0
 80024ea:	2200      	movs	r2, #0
 80024ec:	6838      	ldr	r0, [r7, #0]
 80024ee:	a904      	add	r1, sp, #16
 80024f0:	f7ff f927 	bl	8001742 <xQueueReceive>
 80024f4:	2800      	cmp	r0, #0
 80024f6:	d0ba      	beq.n	800246e <prvTimerTask+0xa>
 80024f8:	9b04      	ldr	r3, [sp, #16]
 80024fa:	9806      	ldr	r0, [sp, #24]
 80024fc:	2b00      	cmp	r3, #0
 80024fe:	db3f      	blt.n	8002580 <prvTimerTask+0x11c>
 8002500:	9c06      	ldr	r4, [sp, #24]
 8002502:	6963      	ldr	r3, [r4, #20]
 8002504:	2b00      	cmp	r3, #0
 8002506:	d142      	bne.n	800258e <prvTimerTask+0x12a>
 8002508:	a803      	add	r0, sp, #12
 800250a:	f7ff ff57 	bl	80023bc <prvSampleTimeNow>
 800250e:	9b04      	ldr	r3, [sp, #16]
 8002510:	4602      	mov	r2, r0
 8002512:	2b09      	cmp	r3, #9
 8002514:	d8e9      	bhi.n	80024ea <prvTimerTask+0x86>
 8002516:	a101      	add	r1, pc, #4	; (adr r1, 800251c <prvTimerTask+0xb8>)
 8002518:	f851 f023 	ldr.w	pc, [r1, r3, lsl #2]
 800251c:	08002597 	.word	0x08002597
 8002520:	08002597 	.word	0x08002597
 8002524:	08002597 	.word	0x08002597
 8002528:	080024eb 	.word	0x080024eb
 800252c:	080025db 	.word	0x080025db
 8002530:	080025ff 	.word	0x080025ff
 8002534:	08002597 	.word	0x08002597
 8002538:	08002597 	.word	0x08002597
 800253c:	080024eb 	.word	0x080024eb
 8002540:	080025db 	.word	0x080025db
 8002544:	4b34      	ldr	r3, [pc, #208]	; (8002618 <prvTimerTask+0x1b4>)
 8002546:	681b      	ldr	r3, [r3, #0]
 8002548:	681c      	ldr	r4, [r3, #0]
 800254a:	fab4 f484 	clz	r4, r4
 800254e:	0964      	lsrs	r4, r4, #5
 8002550:	4622      	mov	r2, r4
 8002552:	6838      	ldr	r0, [r7, #0]
 8002554:	eba8 0109 	sub.w	r1, r8, r9
 8002558:	f7ff f9a4 	bl	80018a4 <vQueueWaitForMessageRestricted>
 800255c:	f7ff fc8a 	bl	8001e74 <xTaskResumeAll>
 8002560:	2800      	cmp	r0, #0
 8002562:	d1c1      	bne.n	80024e8 <prvTimerTask+0x84>
 8002564:	f04f 23e0 	mov.w	r3, #3758153728	; 0xe000e000
 8002568:	f04f 5280 	mov.w	r2, #268435456	; 0x10000000
 800256c:	f8c3 2d04 	str.w	r2, [r3, #3332]	; 0xd04
 8002570:	f3bf 8f4f 	dsb	sy
 8002574:	f3bf 8f6f 	isb	sy
 8002578:	e7b6      	b.n	80024e8 <prvTimerTask+0x84>
 800257a:	f7ff fc7b 	bl	8001e74 <xTaskResumeAll>
 800257e:	e7b3      	b.n	80024e8 <prvTimerTask+0x84>
 8002580:	9b05      	ldr	r3, [sp, #20]
 8002582:	9907      	ldr	r1, [sp, #28]
 8002584:	4798      	blx	r3
 8002586:	9b04      	ldr	r3, [sp, #16]
 8002588:	2b00      	cmp	r3, #0
 800258a:	dbae      	blt.n	80024ea <prvTimerTask+0x86>
 800258c:	e7b8      	b.n	8002500 <prvTimerTask+0x9c>
 800258e:	1d20      	adds	r0, r4, #4
 8002590:	f7fe fe9b 	bl	80012ca <uxListRemove>
 8002594:	e7b8      	b.n	8002508 <prvTimerTask+0xa4>
 8002596:	69a1      	ldr	r1, [r4, #24]
 8002598:	9b05      	ldr	r3, [sp, #20]
 800259a:	4620      	mov	r0, r4
 800259c:	4419      	add	r1, r3
 800259e:	f7ff fe91 	bl	80022c4 <prvInsertTimerInActiveList>
 80025a2:	2800      	cmp	r0, #0
 80025a4:	d0a1      	beq.n	80024ea <prvTimerTask+0x86>
 80025a6:	6a63      	ldr	r3, [r4, #36]	; 0x24
 80025a8:	4620      	mov	r0, r4
 80025aa:	4798      	blx	r3
 80025ac:	69e3      	ldr	r3, [r4, #28]
 80025ae:	2b01      	cmp	r3, #1
 80025b0:	d19b      	bne.n	80024ea <prvTimerTask+0x86>
 80025b2:	2300      	movs	r3, #0
 80025b4:	69a2      	ldr	r2, [r4, #24]
 80025b6:	9905      	ldr	r1, [sp, #20]
 80025b8:	4620      	mov	r0, r4
 80025ba:	440a      	add	r2, r1
 80025bc:	9500      	str	r5, [sp, #0]
 80025be:	4619      	mov	r1, r3
 80025c0:	f7ff fed0 	bl	8002364 <xTimerGenericCommand>
 80025c4:	2800      	cmp	r0, #0
 80025c6:	d190      	bne.n	80024ea <prvTimerTask+0x86>
 80025c8:	f04f 0350 	mov.w	r3, #80	; 0x50
 80025cc:	f383 8811 	msr	BASEPRI, r3
 80025d0:	f3bf 8f6f 	isb	sy
 80025d4:	f3bf 8f4f 	dsb	sy
 80025d8:	e7fe      	b.n	80025d8 <prvTimerTask+0x174>
 80025da:	9905      	ldr	r1, [sp, #20]
 80025dc:	61a1      	str	r1, [r4, #24]
 80025de:	b941      	cbnz	r1, 80025f2 <prvTimerTask+0x18e>
 80025e0:	f04f 0350 	mov.w	r3, #80	; 0x50
 80025e4:	f383 8811 	msr	BASEPRI, r3
 80025e8:	f3bf 8f6f 	isb	sy
 80025ec:	f3bf 8f4f 	dsb	sy
 80025f0:	e7fe      	b.n	80025f0 <prvTimerTask+0x18c>
 80025f2:	4603      	mov	r3, r0
 80025f4:	4401      	add	r1, r0
 80025f6:	4620      	mov	r0, r4
 80025f8:	f7ff fe64 	bl	80022c4 <prvInsertTimerInActiveList>
 80025fc:	e775      	b.n	80024ea <prvTimerTask+0x86>
 80025fe:	f894 302c 	ldrb.w	r3, [r4, #44]	; 0x2c
 8002602:	2b00      	cmp	r3, #0
 8002604:	f47f af71 	bne.w	80024ea <prvTimerTask+0x86>
 8002608:	4620      	mov	r0, r4
 800260a:	f000 fa19 	bl	8002a40 <vPortFree>
 800260e:	e76c      	b.n	80024ea <prvTimerTask+0x86>
 8002610:	20000de4 	.word	0x20000de4
 8002614:	20000f08 	.word	0x20000f08
 8002618:	20000de8 	.word	0x20000de8

0800261c <prvPortStartFirstTask>:
 800261c:	4806      	ldr	r0, [pc, #24]	; (8002638 <prvPortStartFirstTask+0x1c>)
 800261e:	6800      	ldr	r0, [r0, #0]
 8002620:	6800      	ldr	r0, [r0, #0]
 8002622:	f380 8808 	msr	MSP, r0
 8002626:	b662      	cpsie	i
 8002628:	b661      	cpsie	f
 800262a:	f3bf 8f4f 	dsb	sy
 800262e:	f3bf 8f6f 	isb	sy
 8002632:	df00      	svc	0
 8002634:	bf00      	nop
 8002636:	0000      	.short	0x0000
 8002638:	e000ed08 	.word	0xe000ed08

0800263c <prvTaskExitError>:
 800263c:	2300      	movs	r3, #0
 800263e:	b082      	sub	sp, #8
 8002640:	9301      	str	r3, [sp, #4]
 8002642:	4b0d      	ldr	r3, [pc, #52]	; (8002678 <prvTaskExitError+0x3c>)
 8002644:	681b      	ldr	r3, [r3, #0]
 8002646:	3301      	adds	r3, #1
 8002648:	d008      	beq.n	800265c <prvTaskExitError+0x20>
 800264a:	f04f 0350 	mov.w	r3, #80	; 0x50
 800264e:	f383 8811 	msr	BASEPRI, r3
 8002652:	f3bf 8f6f 	isb	sy
 8002656:	f3bf 8f4f 	dsb	sy
 800265a:	e7fe      	b.n	800265a <prvTaskExitError+0x1e>
 800265c:	f04f 0350 	mov.w	r3, #80	; 0x50
 8002660:	f383 8811 	msr	BASEPRI, r3
 8002664:	f3bf 8f6f 	isb	sy
 8002668:	f3bf 8f4f 	dsb	sy
 800266c:	9b01      	ldr	r3, [sp, #4]
 800266e:	2b00      	cmp	r3, #0
 8002670:	d0fc      	beq.n	800266c <prvTaskExitError+0x30>
 8002672:	b002      	add	sp, #8
 8002674:	4770      	bx	lr
 8002676:	bf00      	nop
 8002678:	2000000c 	.word	0x2000000c

0800267c <pxPortInitialiseStack>:
 800267c:	f04f 7380 	mov.w	r3, #16777216	; 0x1000000
 8002680:	f840 3c04 	str.w	r3, [r0, #-4]
 8002684:	4b05      	ldr	r3, [pc, #20]	; (800269c <pxPortInitialiseStack+0x20>)
 8002686:	f021 0101 	bic.w	r1, r1, #1
 800268a:	f840 1c08 	str.w	r1, [r0, #-8]
 800268e:	f840 3c0c 	str.w	r3, [r0, #-12]
 8002692:	f840 2c20 	str.w	r2, [r0, #-32]
 8002696:	3840      	subs	r0, #64	; 0x40
 8002698:	4770      	bx	lr
 800269a:	bf00      	nop
 800269c:	0800263d 	.word	0x0800263d

080026a0 <SVC_Handler>:
 80026a0:	4b07      	ldr	r3, [pc, #28]	; (80026c0 <pxCurrentTCBConst2>)
 80026a2:	6819      	ldr	r1, [r3, #0]
 80026a4:	6808      	ldr	r0, [r1, #0]
 80026a6:	e8b0 0ff0 	ldmia.w	r0!, {r4, r5, r6, r7, r8, r9, sl, fp}
 80026aa:	f380 8809 	msr	PSP, r0
 80026ae:	f3bf 8f6f 	isb	sy
 80026b2:	f04f 0000 	mov.w	r0, #0
 80026b6:	f380 8811 	msr	BASEPRI, r0
 80026ba:	f04e 0e0d 	orr.w	lr, lr, #13
 80026be:	4770      	bx	lr

080026c0 <pxCurrentTCBConst2>:
 80026c0:	200008e8 	.word	0x200008e8

080026c4 <vPortEnterCritical>:
 80026c4:	f04f 0350 	mov.w	r3, #80	; 0x50
 80026c8:	f383 8811 	msr	BASEPRI, r3
 80026cc:	f3bf 8f6f 	isb	sy
 80026d0:	f3bf 8f4f 	dsb	sy
 80026d4:	4a0a      	ldr	r2, [pc, #40]	; (8002700 <vPortEnterCritical+0x3c>)
 80026d6:	6813      	ldr	r3, [r2, #0]
 80026d8:	3301      	adds	r3, #1
 80026da:	2b01      	cmp	r3, #1
 80026dc:	6013      	str	r3, [r2, #0]
 80026de:	d10e      	bne.n	80026fe <vPortEnterCritical+0x3a>
 80026e0:	f04f 23e0 	mov.w	r3, #3758153728	; 0xe000e000
 80026e4:	f8d3 3d04 	ldr.w	r3, [r3, #3332]	; 0xd04
 80026e8:	b2db      	uxtb	r3, r3
 80026ea:	b143      	cbz	r3, 80026fe <vPortEnterCritical+0x3a>
 80026ec:	f04f 0350 	mov.w	r3, #80	; 0x50
 80026f0:	f383 8811 	msr	BASEPRI, r3
 80026f4:	f3bf 8f6f 	isb	sy
 80026f8:	f3bf 8f4f 	dsb	sy
 80026fc:	e7fe      	b.n	80026fc <vPortEnterCritical+0x38>
 80026fe:	4770      	bx	lr
 8002700:	2000000c 	.word	0x2000000c

08002704 <vPortExitCritical>:
 8002704:	4a08      	ldr	r2, [pc, #32]	; (8002728 <vPortExitCritical+0x24>)
 8002706:	6813      	ldr	r3, [r2, #0]
 8002708:	b943      	cbnz	r3, 800271c <vPortExitCritical+0x18>
 800270a:	f04f 0350 	mov.w	r3, #80	; 0x50
 800270e:	f383 8811 	msr	BASEPRI, r3
 8002712:	f3bf 8f6f 	isb	sy
 8002716:	f3bf 8f4f 	dsb	sy
 800271a:	e7fe      	b.n	800271a <vPortExitCritical+0x16>
 800271c:	3b01      	subs	r3, #1
 800271e:	6013      	str	r3, [r2, #0]
 8002720:	b90b      	cbnz	r3, 8002726 <vPortExitCritical+0x22>
 8002722:	f383 8811 	msr	BASEPRI, r3
 8002726:	4770      	bx	lr
 8002728:	2000000c 	.word	0x2000000c
 800272c:	00000000 	.word	0x00000000

08002730 <PendSV_Handler>:
 8002730:	f3ef 8009 	mrs	r0, PSP
 8002734:	f3bf 8f6f 	isb	sy
 8002738:	4b0d      	ldr	r3, [pc, #52]	; (8002770 <pxCurrentTCBConst>)
 800273a:	681a      	ldr	r2, [r3, #0]
 800273c:	e920 0ff0 	stmdb	r0!, {r4, r5, r6, r7, r8, r9, sl, fp}
 8002740:	6010      	str	r0, [r2, #0]
 8002742:	e92d 4008 	stmdb	sp!, {r3, lr}
 8002746:	f04f 0050 	mov.w	r0, #80	; 0x50
 800274a:	f380 8811 	msr	BASEPRI, r0
 800274e:	f7ff fc29 	bl	8001fa4 <vTaskSwitchContext>
 8002752:	f04f 0000 	mov.w	r0, #0
 8002756:	f380 8811 	msr	BASEPRI, r0
 800275a:	e8bd 4008 	ldmia.w	sp!, {r3, lr}
 800275e:	6819      	ldr	r1, [r3, #0]
 8002760:	6808      	ldr	r0, [r1, #0]
 8002762:	e8b0 0ff0 	ldmia.w	r0!, {r4, r5, r6, r7, r8, r9, sl, fp}
 8002766:	f380 8809 	msr	PSP, r0
 800276a:	f3bf 8f6f 	isb	sy
 800276e:	4770      	bx	lr

08002770 <pxCurrentTCBConst>:
 8002770:	200008e8 	.word	0x200008e8

08002774 <SysTick_Handler>:
 8002774:	b508      	push	{r3, lr}
 8002776:	f04f 0350 	mov.w	r3, #80	; 0x50
 800277a:	f383 8811 	msr	BASEPRI, r3
 800277e:	f3bf 8f6f 	isb	sy
 8002782:	f3bf 8f4f 	dsb	sy
 8002786:	f7ff fae5 	bl	8001d54 <xTaskIncrementTick>
 800278a:	b128      	cbz	r0, 8002798 <SysTick_Handler+0x24>
 800278c:	f04f 23e0 	mov.w	r3, #3758153728	; 0xe000e000
 8002790:	f04f 5280 	mov.w	r2, #268435456	; 0x10000000
 8002794:	f8c3 2d04 	str.w	r2, [r3, #3332]	; 0xd04
 8002798:	2300      	movs	r3, #0
 800279a:	f383 8811 	msr	BASEPRI, r3
 800279e:	bd08      	pop	{r3, pc}

080027a0 <vPortSetupTimerInterrupt>:
 80027a0:	f04f 22e0 	mov.w	r2, #3758153728	; 0xe000e000
 80027a4:	2300      	movs	r3, #0
 80027a6:	f44f 717a 	mov.w	r1, #1000	; 0x3e8
 80027aa:	6113      	str	r3, [r2, #16]
 80027ac:	6193      	str	r3, [r2, #24]
 80027ae:	4b04      	ldr	r3, [pc, #16]	; (80027c0 <vPortSetupTimerInterrupt+0x20>)
 80027b0:	681b      	ldr	r3, [r3, #0]
 80027b2:	fbb3 f3f1 	udiv	r3, r3, r1
 80027b6:	3b01      	subs	r3, #1
 80027b8:	6153      	str	r3, [r2, #20]
 80027ba:	2307      	movs	r3, #7
 80027bc:	6113      	str	r3, [r2, #16]
 80027be:	4770      	bx	lr
 80027c0:	20000000 	.word	0x20000000

080027c4 <xPortStartScheduler>:
 80027c4:	b513      	push	{r0, r1, r4, lr}
 80027c6:	4b29      	ldr	r3, [pc, #164]	; (800286c <xPortStartScheduler+0xa8>)
 80027c8:	2100      	movs	r1, #0
 80027ca:	781a      	ldrb	r2, [r3, #0]
 80027cc:	b2d2      	uxtb	r2, r2
 80027ce:	9201      	str	r2, [sp, #4]
 80027d0:	22ff      	movs	r2, #255	; 0xff
 80027d2:	701a      	strb	r2, [r3, #0]
 80027d4:	781b      	ldrb	r3, [r3, #0]
 80027d6:	4a26      	ldr	r2, [pc, #152]	; (8002870 <xPortStartScheduler+0xac>)
 80027d8:	b2db      	uxtb	r3, r3
 80027da:	f88d 3003 	strb.w	r3, [sp, #3]
 80027de:	f89d 3003 	ldrb.w	r3, [sp, #3]
 80027e2:	f003 0350 	and.w	r3, r3, #80	; 0x50
 80027e6:	7013      	strb	r3, [r2, #0]
 80027e8:	2307      	movs	r3, #7
 80027ea:	4a22      	ldr	r2, [pc, #136]	; (8002874 <xPortStartScheduler+0xb0>)
 80027ec:	6013      	str	r3, [r2, #0]
 80027ee:	f89d 0003 	ldrb.w	r0, [sp, #3]
 80027f2:	1e5c      	subs	r4, r3, #1
 80027f4:	0600      	lsls	r0, r0, #24
 80027f6:	d40c      	bmi.n	8002812 <xPortStartScheduler+0x4e>
 80027f8:	b111      	cbz	r1, 8002800 <xPortStartScheduler+0x3c>
 80027fa:	2b03      	cmp	r3, #3
 80027fc:	6013      	str	r3, [r2, #0]
 80027fe:	d011      	beq.n	8002824 <xPortStartScheduler+0x60>
 8002800:	f04f 0350 	mov.w	r3, #80	; 0x50
 8002804:	f383 8811 	msr	BASEPRI, r3
 8002808:	f3bf 8f6f 	isb	sy
 800280c:	f3bf 8f4f 	dsb	sy
 8002810:	e7fe      	b.n	8002810 <xPortStartScheduler+0x4c>
 8002812:	f89d 3003 	ldrb.w	r3, [sp, #3]
 8002816:	2101      	movs	r1, #1
 8002818:	005b      	lsls	r3, r3, #1
 800281a:	b2db      	uxtb	r3, r3
 800281c:	f88d 3003 	strb.w	r3, [sp, #3]
 8002820:	4623      	mov	r3, r4
 8002822:	e7e4      	b.n	80027ee <xPortStartScheduler+0x2a>
 8002824:	f44f 7340 	mov.w	r3, #768	; 0x300
 8002828:	6013      	str	r3, [r2, #0]
 800282a:	9b01      	ldr	r3, [sp, #4]
 800282c:	4a0f      	ldr	r2, [pc, #60]	; (800286c <xPortStartScheduler+0xa8>)
 800282e:	b2db      	uxtb	r3, r3
 8002830:	7013      	strb	r3, [r2, #0]
 8002832:	f04f 23e0 	mov.w	r3, #3758153728	; 0xe000e000
 8002836:	2400      	movs	r4, #0
 8002838:	f8d3 2d20 	ldr.w	r2, [r3, #3360]	; 0xd20
 800283c:	f442 0270 	orr.w	r2, r2, #15728640	; 0xf00000
 8002840:	f8c3 2d20 	str.w	r2, [r3, #3360]	; 0xd20
 8002844:	f8d3 2d20 	ldr.w	r2, [r3, #3360]	; 0xd20
 8002848:	f042 4270 	orr.w	r2, r2, #4026531840	; 0xf0000000
 800284c:	f8c3 2d20 	str.w	r2, [r3, #3360]	; 0xd20
 8002850:	f7ff ffa6 	bl	80027a0 <vPortSetupTimerInterrupt>
 8002854:	4b08      	ldr	r3, [pc, #32]	; (8002878 <xPortStartScheduler+0xb4>)
 8002856:	601c      	str	r4, [r3, #0]
 8002858:	f7ff fee0 	bl	800261c <prvPortStartFirstTask>
 800285c:	f7ff fba2 	bl	8001fa4 <vTaskSwitchContext>
 8002860:	4620      	mov	r0, r4
 8002862:	f7ff feeb 	bl	800263c <prvTaskExitError>
 8002866:	b002      	add	sp, #8
 8002868:	bd10      	pop	{r4, pc}
 800286a:	bf00      	nop
 800286c:	e000e400 	.word	0xe000e400
 8002870:	20000f10 	.word	0x20000f10
 8002874:	20000f14 	.word	0x20000f14
 8002878:	2000000c 	.word	0x2000000c

0800287c <vPortValidateInterruptPriority>:
 800287c:	f3ef 8305 	mrs	r3, IPSR
 8002880:	2b0f      	cmp	r3, #15
 8002882:	d90e      	bls.n	80028a2 <vPortValidateInterruptPriority+0x26>
 8002884:	4a11      	ldr	r2, [pc, #68]	; (80028cc <vPortValidateInterruptPriority+0x50>)
 8002886:	5c9b      	ldrb	r3, [r3, r2]
 8002888:	4a11      	ldr	r2, [pc, #68]	; (80028d0 <vPortValidateInterruptPriority+0x54>)
 800288a:	7812      	ldrb	r2, [r2, #0]
 800288c:	429a      	cmp	r2, r3
 800288e:	d908      	bls.n	80028a2 <vPortValidateInterruptPriority+0x26>
 8002890:	f04f 0350 	mov.w	r3, #80	; 0x50
 8002894:	f383 8811 	msr	BASEPRI, r3
 8002898:	f3bf 8f6f 	isb	sy
 800289c:	f3bf 8f4f 	dsb	sy
 80028a0:	e7fe      	b.n	80028a0 <vPortValidateInterruptPriority+0x24>
 80028a2:	f04f 23e0 	mov.w	r3, #3758153728	; 0xe000e000
 80028a6:	4a0b      	ldr	r2, [pc, #44]	; (80028d4 <vPortValidateInterruptPriority+0x58>)
 80028a8:	f8d3 3d0c 	ldr.w	r3, [r3, #3340]	; 0xd0c
 80028ac:	6812      	ldr	r2, [r2, #0]
 80028ae:	f403 63e0 	and.w	r3, r3, #1792	; 0x700
 80028b2:	4293      	cmp	r3, r2
 80028b4:	d908      	bls.n	80028c8 <vPortValidateInterruptPriority+0x4c>
 80028b6:	f04f 0350 	mov.w	r3, #80	; 0x50
 80028ba:	f383 8811 	msr	BASEPRI, r3
 80028be:	f3bf 8f6f 	isb	sy
 80028c2:	f3bf 8f4f 	dsb	sy
 80028c6:	e7fe      	b.n	80028c6 <vPortValidateInterruptPriority+0x4a>
 80028c8:	4770      	bx	lr
 80028ca:	bf00      	nop
 80028cc:	e000e3f0 	.word	0xe000e3f0
 80028d0:	20000f10 	.word	0x20000f10
 80028d4:	20000f14 	.word	0x20000f14

080028d8 <prvInsertBlockIntoFreeList>:
 80028d8:	b510      	push	{r4, lr}
 80028da:	4b0f      	ldr	r3, [pc, #60]	; (8002918 <prvInsertBlockIntoFreeList+0x40>)
 80028dc:	461a      	mov	r2, r3
 80028de:	681b      	ldr	r3, [r3, #0]
 80028e0:	4283      	cmp	r3, r0
 80028e2:	d3fb      	bcc.n	80028dc <prvInsertBlockIntoFreeList+0x4>
 80028e4:	6854      	ldr	r4, [r2, #4]
 80028e6:	1911      	adds	r1, r2, r4
 80028e8:	4288      	cmp	r0, r1
 80028ea:	bf01      	itttt	eq
 80028ec:	6841      	ldreq	r1, [r0, #4]
 80028ee:	4610      	moveq	r0, r2
 80028f0:	1909      	addeq	r1, r1, r4
 80028f2:	6051      	streq	r1, [r2, #4]
 80028f4:	6844      	ldr	r4, [r0, #4]
 80028f6:	1901      	adds	r1, r0, r4
 80028f8:	428b      	cmp	r3, r1
 80028fa:	d107      	bne.n	800290c <prvInsertBlockIntoFreeList+0x34>
 80028fc:	4907      	ldr	r1, [pc, #28]	; (800291c <prvInsertBlockIntoFreeList+0x44>)
 80028fe:	6809      	ldr	r1, [r1, #0]
 8002900:	428b      	cmp	r3, r1
 8002902:	bf1f      	itttt	ne
 8002904:	6859      	ldrne	r1, [r3, #4]
 8002906:	681b      	ldrne	r3, [r3, #0]
 8002908:	1909      	addne	r1, r1, r4
 800290a:	6041      	strne	r1, [r0, #4]
 800290c:	4290      	cmp	r0, r2
 800290e:	6003      	str	r3, [r0, #0]
 8002910:	bf18      	it	ne
 8002912:	6010      	strne	r0, [r2, #0]
 8002914:	bd10      	pop	{r4, pc}
 8002916:	bf00      	nop
 8002918:	20001b28 	.word	0x20001b28
 800291c:	20000f18 	.word	0x20000f18

08002920 <pvPortMalloc>:
 8002920:	e92d 41f0 	stmdb	sp!, {r4, r5, r6, r7, r8, lr}
 8002924:	4604      	mov	r4, r0
 8002926:	f7ff fa07 	bl	8001d38 <vTaskSuspendAll>
 800292a:	483f      	ldr	r0, [pc, #252]	; (8002a28 <pvPortMalloc+0x108>)
 800292c:	4d3f      	ldr	r5, [pc, #252]	; (8002a2c <pvPortMalloc+0x10c>)
 800292e:	6803      	ldr	r3, [r0, #0]
 8002930:	bb0b      	cbnz	r3, 8002976 <pvPortMalloc+0x56>
 8002932:	493f      	ldr	r1, [pc, #252]	; (8002a30 <pvPortMalloc+0x110>)
 8002934:	074e      	lsls	r6, r1, #29
 8002936:	bf1d      	ittte	ne
 8002938:	1dcb      	addne	r3, r1, #7
 800293a:	f023 0307 	bicne.w	r3, r3, #7
 800293e:	f501 6240 	addne.w	r2, r1, #3072	; 0xc00
 8002942:	f44f 6240 	moveq.w	r2, #3072	; 0xc00
 8002946:	bf1c      	itt	ne
 8002948:	4619      	movne	r1, r3
 800294a:	1ad2      	subne	r2, r2, r3
 800294c:	2300      	movs	r3, #0
 800294e:	440a      	add	r2, r1
 8002950:	4e38      	ldr	r6, [pc, #224]	; (8002a34 <pvPortMalloc+0x114>)
 8002952:	3a08      	subs	r2, #8
 8002954:	f022 0207 	bic.w	r2, r2, #7
 8002958:	6073      	str	r3, [r6, #4]
 800295a:	6031      	str	r1, [r6, #0]
 800295c:	e9c2 3300 	strd	r3, r3, [r2]
 8002960:	1a53      	subs	r3, r2, r1
 8002962:	e9c1 2300 	strd	r2, r3, [r1]
 8002966:	6002      	str	r2, [r0, #0]
 8002968:	4a33      	ldr	r2, [pc, #204]	; (8002a38 <pvPortMalloc+0x118>)
 800296a:	6013      	str	r3, [r2, #0]
 800296c:	4a33      	ldr	r2, [pc, #204]	; (8002a3c <pvPortMalloc+0x11c>)
 800296e:	6013      	str	r3, [r2, #0]
 8002970:	f04f 4300 	mov.w	r3, #2147483648	; 0x80000000
 8002974:	602b      	str	r3, [r5, #0]
 8002976:	682f      	ldr	r7, [r5, #0]
 8002978:	4227      	tst	r7, r4
 800297a:	d150      	bne.n	8002a1e <pvPortMalloc+0xfe>
 800297c:	2c00      	cmp	r4, #0
 800297e:	d041      	beq.n	8002a04 <pvPortMalloc+0xe4>
 8002980:	f104 0308 	add.w	r3, r4, #8
 8002984:	0761      	lsls	r1, r4, #29
 8002986:	bf1c      	itt	ne
 8002988:	f023 0307 	bicne.w	r3, r3, #7
 800298c:	3308      	addne	r3, #8
 800298e:	2b00      	cmp	r3, #0
 8002990:	d045      	beq.n	8002a1e <pvPortMalloc+0xfe>
 8002992:	4c2a      	ldr	r4, [pc, #168]	; (8002a3c <pvPortMalloc+0x11c>)
 8002994:	6826      	ldr	r6, [r4, #0]
 8002996:	429e      	cmp	r6, r3
 8002998:	d341      	bcc.n	8002a1e <pvPortMalloc+0xfe>
 800299a:	4a26      	ldr	r2, [pc, #152]	; (8002a34 <pvPortMalloc+0x114>)
 800299c:	6815      	ldr	r5, [r2, #0]
 800299e:	6869      	ldr	r1, [r5, #4]
 80029a0:	4299      	cmp	r1, r3
 80029a2:	d204      	bcs.n	80029ae <pvPortMalloc+0x8e>
 80029a4:	f8d5 c000 	ldr.w	ip, [r5]
 80029a8:	f1bc 0f00 	cmp.w	ip, #0
 80029ac:	d115      	bne.n	80029da <pvPortMalloc+0xba>
 80029ae:	6800      	ldr	r0, [r0, #0]
 80029b0:	42a8      	cmp	r0, r5
 80029b2:	d034      	beq.n	8002a1e <pvPortMalloc+0xfe>
 80029b4:	6828      	ldr	r0, [r5, #0]
 80029b6:	1ac9      	subs	r1, r1, r3
 80029b8:	2910      	cmp	r1, #16
 80029ba:	f8d2 8000 	ldr.w	r8, [r2]
 80029be:	6010      	str	r0, [r2, #0]
 80029c0:	d912      	bls.n	80029e8 <pvPortMalloc+0xc8>
 80029c2:	18e8      	adds	r0, r5, r3
 80029c4:	0742      	lsls	r2, r0, #29
 80029c6:	d00b      	beq.n	80029e0 <pvPortMalloc+0xc0>
 80029c8:	f04f 0350 	mov.w	r3, #80	; 0x50
 80029cc:	f383 8811 	msr	BASEPRI, r3
 80029d0:	f3bf 8f6f 	isb	sy
 80029d4:	f3bf 8f4f 	dsb	sy
 80029d8:	e7fe      	b.n	80029d8 <pvPortMalloc+0xb8>
 80029da:	462a      	mov	r2, r5
 80029dc:	4665      	mov	r5, ip
 80029de:	e7de      	b.n	800299e <pvPortMalloc+0x7e>
 80029e0:	6041      	str	r1, [r0, #4]
 80029e2:	606b      	str	r3, [r5, #4]
 80029e4:	f7ff ff78 	bl	80028d8 <prvInsertBlockIntoFreeList>
 80029e8:	686b      	ldr	r3, [r5, #4]
 80029ea:	4913      	ldr	r1, [pc, #76]	; (8002a38 <pvPortMalloc+0x118>)
 80029ec:	1af6      	subs	r6, r6, r3
 80029ee:	431f      	orrs	r7, r3
 80029f0:	2300      	movs	r3, #0
 80029f2:	6808      	ldr	r0, [r1, #0]
 80029f4:	6026      	str	r6, [r4, #0]
 80029f6:	4286      	cmp	r6, r0
 80029f8:	bf38      	it	cc
 80029fa:	600e      	strcc	r6, [r1, #0]
 80029fc:	f108 0408 	add.w	r4, r8, #8
 8002a00:	606f      	str	r7, [r5, #4]
 8002a02:	602b      	str	r3, [r5, #0]
 8002a04:	f7ff fa36 	bl	8001e74 <xTaskResumeAll>
 8002a08:	0763      	lsls	r3, r4, #29
 8002a0a:	d00a      	beq.n	8002a22 <pvPortMalloc+0x102>
 8002a0c:	f04f 0350 	mov.w	r3, #80	; 0x50
 8002a10:	f383 8811 	msr	BASEPRI, r3
 8002a14:	f3bf 8f6f 	isb	sy
 8002a18:	f3bf 8f4f 	dsb	sy
 8002a1c:	e7fe      	b.n	8002a1c <pvPortMalloc+0xfc>
 8002a1e:	2400      	movs	r4, #0
 8002a20:	e7f0      	b.n	8002a04 <pvPortMalloc+0xe4>
 8002a22:	4620      	mov	r0, r4
 8002a24:	e8bd 81f0 	ldmia.w	sp!, {r4, r5, r6, r7, r8, pc}
 8002a28:	20000f18 	.word	0x20000f18
 8002a2c:	20001b1c 	.word	0x20001b1c
 8002a30:	20000f1c 	.word	0x20000f1c
 8002a34:	20001b28 	.word	0x20001b28
 8002a38:	20001b24 	.word	0x20001b24
 8002a3c:	20001b20 	.word	0x20001b20

08002a40 <vPortFree>:
 8002a40:	b510      	push	{r4, lr}
 8002a42:	4604      	mov	r4, r0
 8002a44:	b370      	cbz	r0, 8002aa4 <vPortFree+0x64>
 8002a46:	4a18      	ldr	r2, [pc, #96]	; (8002aa8 <vPortFree+0x68>)
 8002a48:	f850 3c04 	ldr.w	r3, [r0, #-4]
 8002a4c:	6812      	ldr	r2, [r2, #0]
 8002a4e:	4213      	tst	r3, r2
 8002a50:	d108      	bne.n	8002a64 <vPortFree+0x24>
 8002a52:	f04f 0350 	mov.w	r3, #80	; 0x50
 8002a56:	f383 8811 	msr	BASEPRI, r3
 8002a5a:	f3bf 8f6f 	isb	sy
 8002a5e:	f3bf 8f4f 	dsb	sy
 8002a62:	e7fe      	b.n	8002a62 <vPortFree+0x22>
 8002a64:	f850 1c08 	ldr.w	r1, [r0, #-8]
 8002a68:	b141      	cbz	r1, 8002a7c <vPortFree+0x3c>
 8002a6a:	f04f 0350 	mov.w	r3, #80	; 0x50
 8002a6e:	f383 8811 	msr	BASEPRI, r3
 8002a72:	f3bf 8f6f 	isb	sy
 8002a76:	f3bf 8f4f 	dsb	sy
 8002a7a:	e7fe      	b.n	8002a7a <vPortFree+0x3a>
 8002a7c:	ea23 0302 	bic.w	r3, r3, r2
 8002a80:	f840 3c04 	str.w	r3, [r0, #-4]
 8002a84:	f7ff f958 	bl	8001d38 <vTaskSuspendAll>
 8002a88:	4a08      	ldr	r2, [pc, #32]	; (8002aac <vPortFree+0x6c>)
 8002a8a:	f854 3c04 	ldr.w	r3, [r4, #-4]
 8002a8e:	6811      	ldr	r1, [r2, #0]
 8002a90:	f1a4 0008 	sub.w	r0, r4, #8
 8002a94:	440b      	add	r3, r1
 8002a96:	6013      	str	r3, [r2, #0]
 8002a98:	f7ff ff1e 	bl	80028d8 <prvInsertBlockIntoFreeList>
 8002a9c:	e8bd 4010 	ldmia.w	sp!, {r4, lr}
 8002aa0:	f7ff b9e8 	b.w	8001e74 <xTaskResumeAll>
 8002aa4:	bd10      	pop	{r4, pc}
 8002aa6:	bf00      	nop
 8002aa8:	20001b1c 	.word	0x20001b1c
 8002aac:	20001b20 	.word	0x20001b20

08002ab0 <_Znwj>:
 8002ab0:	2801      	cmp	r0, #1
 8002ab2:	bf38      	it	cc
 8002ab4:	2001      	movcc	r0, #1
 8002ab6:	b510      	push	{r4, lr}
 8002ab8:	4604      	mov	r4, r0
 8002aba:	4620      	mov	r0, r4
 8002abc:	f000 f846 	bl	8002b4c <malloc>
 8002ac0:	b930      	cbnz	r0, 8002ad0 <_Znwj+0x20>
 8002ac2:	f000 f807 	bl	8002ad4 <_ZSt15get_new_handlerv>
 8002ac6:	b908      	cbnz	r0, 8002acc <_Znwj+0x1c>
 8002ac8:	f000 f80c 	bl	8002ae4 <abort>
 8002acc:	4780      	blx	r0
 8002ace:	e7f4      	b.n	8002aba <_Znwj+0xa>
 8002ad0:	bd10      	pop	{r4, pc}
	...

08002ad4 <_ZSt15get_new_handlerv>:
 8002ad4:	4b02      	ldr	r3, [pc, #8]	; (8002ae0 <_ZSt15get_new_handlerv+0xc>)
 8002ad6:	6818      	ldr	r0, [r3, #0]
 8002ad8:	f3bf 8f5b 	dmb	ish
 8002adc:	4770      	bx	lr
 8002ade:	bf00      	nop
 8002ae0:	20001b30 	.word	0x20001b30

08002ae4 <abort>:
 8002ae4:	2006      	movs	r0, #6
 8002ae6:	b508      	push	{r3, lr}
 8002ae8:	f000 f9cc 	bl	8002e84 <raise>
 8002aec:	2001      	movs	r0, #1
 8002aee:	f7fd fc91 	bl	8000414 <_exit>
	...

08002af4 <__errno>:
 8002af4:	4b01      	ldr	r3, [pc, #4]	; (8002afc <__errno+0x8>)
 8002af6:	6818      	ldr	r0, [r3, #0]
 8002af8:	4770      	bx	lr
 8002afa:	bf00      	nop
 8002afc:	20000010 	.word	0x20000010

08002b00 <__libc_init_array>:
 8002b00:	b570      	push	{r4, r5, r6, lr}
 8002b02:	2600      	movs	r6, #0
 8002b04:	4d0c      	ldr	r5, [pc, #48]	; (8002b38 <__libc_init_array+0x38>)
 8002b06:	4c0d      	ldr	r4, [pc, #52]	; (8002b3c <__libc_init_array+0x3c>)
 8002b08:	1b64      	subs	r4, r4, r5
 8002b0a:	10a4      	asrs	r4, r4, #2
 8002b0c:	42a6      	cmp	r6, r4
 8002b0e:	d109      	bne.n	8002b24 <__libc_init_array+0x24>
 8002b10:	f000 f9e0 	bl	8002ed4 <_init>
 8002b14:	2600      	movs	r6, #0
 8002b16:	4d0a      	ldr	r5, [pc, #40]	; (8002b40 <__libc_init_array+0x40>)
 8002b18:	4c0a      	ldr	r4, [pc, #40]	; (8002b44 <__libc_init_array+0x44>)
 8002b1a:	1b64      	subs	r4, r4, r5
 8002b1c:	10a4      	asrs	r4, r4, #2
 8002b1e:	42a6      	cmp	r6, r4
 8002b20:	d105      	bne.n	8002b2e <__libc_init_array+0x2e>
 8002b22:	bd70      	pop	{r4, r5, r6, pc}
 8002b24:	f855 3b04 	ldr.w	r3, [r5], #4
 8002b28:	4798      	blx	r3
 8002b2a:	3601      	adds	r6, #1
 8002b2c:	e7ee      	b.n	8002b0c <__libc_init_array+0xc>
 8002b2e:	f855 3b04 	ldr.w	r3, [r5], #4
 8002b32:	4798      	blx	r3
 8002b34:	3601      	adds	r6, #1
 8002b36:	e7f2      	b.n	8002b1e <__libc_init_array+0x1e>
 8002b38:	08002fbc 	.word	0x08002fbc
 8002b3c:	08002fbc 	.word	0x08002fbc
 8002b40:	08002fbc 	.word	0x08002fbc
 8002b44:	08002fc4 	.word	0x08002fc4

08002b48 <__retarget_lock_acquire_recursive>:
 8002b48:	4770      	bx	lr

08002b4a <__retarget_lock_release_recursive>:
 8002b4a:	4770      	bx	lr

08002b4c <malloc>:
 8002b4c:	4b02      	ldr	r3, [pc, #8]	; (8002b58 <malloc+0xc>)
 8002b4e:	4601      	mov	r1, r0
 8002b50:	6818      	ldr	r0, [r3, #0]
 8002b52:	f000 b881 	b.w	8002c58 <_malloc_r>
 8002b56:	bf00      	nop
 8002b58:	20000010 	.word	0x20000010

08002b5c <memcpy>:
 8002b5c:	440a      	add	r2, r1
 8002b5e:	4291      	cmp	r1, r2
 8002b60:	f100 33ff 	add.w	r3, r0, #4294967295
 8002b64:	d100      	bne.n	8002b68 <memcpy+0xc>
 8002b66:	4770      	bx	lr
 8002b68:	b510      	push	{r4, lr}
 8002b6a:	f811 4b01 	ldrb.w	r4, [r1], #1
 8002b6e:	4291      	cmp	r1, r2
 8002b70:	f803 4f01 	strb.w	r4, [r3, #1]!
 8002b74:	d1f9      	bne.n	8002b6a <memcpy+0xe>
 8002b76:	bd10      	pop	{r4, pc}

08002b78 <memset>:
 8002b78:	4603      	mov	r3, r0
 8002b7a:	4402      	add	r2, r0
 8002b7c:	4293      	cmp	r3, r2
 8002b7e:	d100      	bne.n	8002b82 <memset+0xa>
 8002b80:	4770      	bx	lr
 8002b82:	f803 1b01 	strb.w	r1, [r3], #1
 8002b86:	e7f9      	b.n	8002b7c <memset+0x4>

08002b88 <_free_r>:
 8002b88:	b538      	push	{r3, r4, r5, lr}
 8002b8a:	4605      	mov	r5, r0
 8002b8c:	2900      	cmp	r1, #0
 8002b8e:	d040      	beq.n	8002c12 <_free_r+0x8a>
 8002b90:	f851 3c04 	ldr.w	r3, [r1, #-4]
 8002b94:	1f0c      	subs	r4, r1, #4
 8002b96:	2b00      	cmp	r3, #0
 8002b98:	bfb8      	it	lt
 8002b9a:	18e4      	addlt	r4, r4, r3
 8002b9c:	f000 f98e 	bl	8002ebc <__malloc_lock>
 8002ba0:	4a1c      	ldr	r2, [pc, #112]	; (8002c14 <_free_r+0x8c>)
 8002ba2:	6813      	ldr	r3, [r2, #0]
 8002ba4:	b933      	cbnz	r3, 8002bb4 <_free_r+0x2c>
 8002ba6:	6063      	str	r3, [r4, #4]
 8002ba8:	6014      	str	r4, [r2, #0]
 8002baa:	4628      	mov	r0, r5
 8002bac:	e8bd 4038 	ldmia.w	sp!, {r3, r4, r5, lr}
 8002bb0:	f000 b98a 	b.w	8002ec8 <__malloc_unlock>
 8002bb4:	42a3      	cmp	r3, r4
 8002bb6:	d908      	bls.n	8002bca <_free_r+0x42>
 8002bb8:	6820      	ldr	r0, [r4, #0]
 8002bba:	1821      	adds	r1, r4, r0
 8002bbc:	428b      	cmp	r3, r1
 8002bbe:	bf01      	itttt	eq
 8002bc0:	6819      	ldreq	r1, [r3, #0]
 8002bc2:	685b      	ldreq	r3, [r3, #4]
 8002bc4:	1809      	addeq	r1, r1, r0
 8002bc6:	6021      	streq	r1, [r4, #0]
 8002bc8:	e7ed      	b.n	8002ba6 <_free_r+0x1e>
 8002bca:	461a      	mov	r2, r3
 8002bcc:	685b      	ldr	r3, [r3, #4]
 8002bce:	b10b      	cbz	r3, 8002bd4 <_free_r+0x4c>
 8002bd0:	42a3      	cmp	r3, r4
 8002bd2:	d9fa      	bls.n	8002bca <_free_r+0x42>
 8002bd4:	6811      	ldr	r1, [r2, #0]
 8002bd6:	1850      	adds	r0, r2, r1
 8002bd8:	42a0      	cmp	r0, r4
 8002bda:	d10b      	bne.n	8002bf4 <_free_r+0x6c>
 8002bdc:	6820      	ldr	r0, [r4, #0]
 8002bde:	4401      	add	r1, r0
 8002be0:	1850      	adds	r0, r2, r1
 8002be2:	4283      	cmp	r3, r0
 8002be4:	6011      	str	r1, [r2, #0]
 8002be6:	d1e0      	bne.n	8002baa <_free_r+0x22>
 8002be8:	6818      	ldr	r0, [r3, #0]
 8002bea:	685b      	ldr	r3, [r3, #4]
 8002bec:	4401      	add	r1, r0
 8002bee:	6011      	str	r1, [r2, #0]
 8002bf0:	6053      	str	r3, [r2, #4]
 8002bf2:	e7da      	b.n	8002baa <_free_r+0x22>
 8002bf4:	d902      	bls.n	8002bfc <_free_r+0x74>
 8002bf6:	230c      	movs	r3, #12
 8002bf8:	602b      	str	r3, [r5, #0]
 8002bfa:	e7d6      	b.n	8002baa <_free_r+0x22>
 8002bfc:	6820      	ldr	r0, [r4, #0]
 8002bfe:	1821      	adds	r1, r4, r0
 8002c00:	428b      	cmp	r3, r1
 8002c02:	bf01      	itttt	eq
 8002c04:	6819      	ldreq	r1, [r3, #0]
 8002c06:	685b      	ldreq	r3, [r3, #4]
 8002c08:	1809      	addeq	r1, r1, r0
 8002c0a:	6021      	streq	r1, [r4, #0]
 8002c0c:	6063      	str	r3, [r4, #4]
 8002c0e:	6054      	str	r4, [r2, #4]
 8002c10:	e7cb      	b.n	8002baa <_free_r+0x22>
 8002c12:	bd38      	pop	{r3, r4, r5, pc}
 8002c14:	20001b38 	.word	0x20001b38

08002c18 <sbrk_aligned>:
 8002c18:	b570      	push	{r4, r5, r6, lr}
 8002c1a:	4e0e      	ldr	r6, [pc, #56]	; (8002c54 <sbrk_aligned+0x3c>)
 8002c1c:	460c      	mov	r4, r1
 8002c1e:	6831      	ldr	r1, [r6, #0]
 8002c20:	4605      	mov	r5, r0
 8002c22:	b911      	cbnz	r1, 8002c2a <sbrk_aligned+0x12>
 8002c24:	f000 f8f6 	bl	8002e14 <_sbrk_r>
 8002c28:	6030      	str	r0, [r6, #0]
 8002c2a:	4621      	mov	r1, r4
 8002c2c:	4628      	mov	r0, r5
 8002c2e:	f000 f8f1 	bl	8002e14 <_sbrk_r>
 8002c32:	1c43      	adds	r3, r0, #1
 8002c34:	d00a      	beq.n	8002c4c <sbrk_aligned+0x34>
 8002c36:	1cc4      	adds	r4, r0, #3
 8002c38:	f024 0403 	bic.w	r4, r4, #3
 8002c3c:	42a0      	cmp	r0, r4
 8002c3e:	d007      	beq.n	8002c50 <sbrk_aligned+0x38>
 8002c40:	1a21      	subs	r1, r4, r0
 8002c42:	4628      	mov	r0, r5
 8002c44:	f000 f8e6 	bl	8002e14 <_sbrk_r>
 8002c48:	3001      	adds	r0, #1
 8002c4a:	d101      	bne.n	8002c50 <sbrk_aligned+0x38>
 8002c4c:	f04f 34ff 	mov.w	r4, #4294967295
 8002c50:	4620      	mov	r0, r4
 8002c52:	bd70      	pop	{r4, r5, r6, pc}
 8002c54:	20001b3c 	.word	0x20001b3c

08002c58 <_malloc_r>:
 8002c58:	e92d 41f0 	stmdb	sp!, {r4, r5, r6, r7, r8, lr}
 8002c5c:	1ccd      	adds	r5, r1, #3
 8002c5e:	f025 0503 	bic.w	r5, r5, #3
 8002c62:	3508      	adds	r5, #8
 8002c64:	2d0c      	cmp	r5, #12
 8002c66:	bf38      	it	cc
 8002c68:	250c      	movcc	r5, #12
 8002c6a:	2d00      	cmp	r5, #0
 8002c6c:	4607      	mov	r7, r0
 8002c6e:	db01      	blt.n	8002c74 <_malloc_r+0x1c>
 8002c70:	42a9      	cmp	r1, r5
 8002c72:	d905      	bls.n	8002c80 <_malloc_r+0x28>
 8002c74:	230c      	movs	r3, #12
 8002c76:	2600      	movs	r6, #0
 8002c78:	603b      	str	r3, [r7, #0]
 8002c7a:	4630      	mov	r0, r6
 8002c7c:	e8bd 81f0 	ldmia.w	sp!, {r4, r5, r6, r7, r8, pc}
 8002c80:	4e2e      	ldr	r6, [pc, #184]	; (8002d3c <_malloc_r+0xe4>)
 8002c82:	f000 f91b 	bl	8002ebc <__malloc_lock>
 8002c86:	6833      	ldr	r3, [r6, #0]
 8002c88:	461c      	mov	r4, r3
 8002c8a:	bb34      	cbnz	r4, 8002cda <_malloc_r+0x82>
 8002c8c:	4629      	mov	r1, r5
 8002c8e:	4638      	mov	r0, r7
 8002c90:	f7ff ffc2 	bl	8002c18 <sbrk_aligned>
 8002c94:	1c43      	adds	r3, r0, #1
 8002c96:	4604      	mov	r4, r0
 8002c98:	d14d      	bne.n	8002d36 <_malloc_r+0xde>
 8002c9a:	6834      	ldr	r4, [r6, #0]
 8002c9c:	4626      	mov	r6, r4
 8002c9e:	2e00      	cmp	r6, #0
 8002ca0:	d140      	bne.n	8002d24 <_malloc_r+0xcc>
 8002ca2:	6823      	ldr	r3, [r4, #0]
 8002ca4:	4631      	mov	r1, r6
 8002ca6:	4638      	mov	r0, r7
 8002ca8:	eb04 0803 	add.w	r8, r4, r3
 8002cac:	f000 f8b2 	bl	8002e14 <_sbrk_r>
 8002cb0:	4580      	cmp	r8, r0
 8002cb2:	d13a      	bne.n	8002d2a <_malloc_r+0xd2>
 8002cb4:	6821      	ldr	r1, [r4, #0]
 8002cb6:	3503      	adds	r5, #3
 8002cb8:	1a6d      	subs	r5, r5, r1
 8002cba:	f025 0503 	bic.w	r5, r5, #3
 8002cbe:	3508      	adds	r5, #8
 8002cc0:	2d0c      	cmp	r5, #12
 8002cc2:	bf38      	it	cc
 8002cc4:	250c      	movcc	r5, #12
 8002cc6:	4638      	mov	r0, r7
 8002cc8:	4629      	mov	r1, r5
 8002cca:	f7ff ffa5 	bl	8002c18 <sbrk_aligned>
 8002cce:	3001      	adds	r0, #1
 8002cd0:	d02b      	beq.n	8002d2a <_malloc_r+0xd2>
 8002cd2:	6823      	ldr	r3, [r4, #0]
 8002cd4:	442b      	add	r3, r5
 8002cd6:	6023      	str	r3, [r4, #0]
 8002cd8:	e00e      	b.n	8002cf8 <_malloc_r+0xa0>
 8002cda:	6822      	ldr	r2, [r4, #0]
 8002cdc:	1b52      	subs	r2, r2, r5
 8002cde:	d41e      	bmi.n	8002d1e <_malloc_r+0xc6>
 8002ce0:	2a0b      	cmp	r2, #11
 8002ce2:	d916      	bls.n	8002d12 <_malloc_r+0xba>
 8002ce4:	1961      	adds	r1, r4, r5
 8002ce6:	42a3      	cmp	r3, r4
 8002ce8:	6025      	str	r5, [r4, #0]
 8002cea:	bf18      	it	ne
 8002cec:	6059      	strne	r1, [r3, #4]
 8002cee:	6863      	ldr	r3, [r4, #4]
 8002cf0:	bf08      	it	eq
 8002cf2:	6031      	streq	r1, [r6, #0]
 8002cf4:	5162      	str	r2, [r4, r5]
 8002cf6:	604b      	str	r3, [r1, #4]
 8002cf8:	4638      	mov	r0, r7
 8002cfa:	f104 060b 	add.w	r6, r4, #11
 8002cfe:	f000 f8e3 	bl	8002ec8 <__malloc_unlock>
 8002d02:	f026 0607 	bic.w	r6, r6, #7
 8002d06:	1d23      	adds	r3, r4, #4
 8002d08:	1af2      	subs	r2, r6, r3
 8002d0a:	d0b6      	beq.n	8002c7a <_malloc_r+0x22>
 8002d0c:	1b9b      	subs	r3, r3, r6
 8002d0e:	50a3      	str	r3, [r4, r2]
 8002d10:	e7b3      	b.n	8002c7a <_malloc_r+0x22>
 8002d12:	6862      	ldr	r2, [r4, #4]
 8002d14:	42a3      	cmp	r3, r4
 8002d16:	bf0c      	ite	eq
 8002d18:	6032      	streq	r2, [r6, #0]
 8002d1a:	605a      	strne	r2, [r3, #4]
 8002d1c:	e7ec      	b.n	8002cf8 <_malloc_r+0xa0>
 8002d1e:	4623      	mov	r3, r4
 8002d20:	6864      	ldr	r4, [r4, #4]
 8002d22:	e7b2      	b.n	8002c8a <_malloc_r+0x32>
 8002d24:	4634      	mov	r4, r6
 8002d26:	6876      	ldr	r6, [r6, #4]
 8002d28:	e7b9      	b.n	8002c9e <_malloc_r+0x46>
 8002d2a:	230c      	movs	r3, #12
 8002d2c:	4638      	mov	r0, r7
 8002d2e:	603b      	str	r3, [r7, #0]
 8002d30:	f000 f8ca 	bl	8002ec8 <__malloc_unlock>
 8002d34:	e7a1      	b.n	8002c7a <_malloc_r+0x22>
 8002d36:	6025      	str	r5, [r4, #0]
 8002d38:	e7de      	b.n	8002cf8 <_malloc_r+0xa0>
 8002d3a:	bf00      	nop
 8002d3c:	20001b38 	.word	0x20001b38

08002d40 <cleanup_glue>:
 8002d40:	b538      	push	{r3, r4, r5, lr}
 8002d42:	460c      	mov	r4, r1
 8002d44:	6809      	ldr	r1, [r1, #0]
 8002d46:	4605      	mov	r5, r0
 8002d48:	b109      	cbz	r1, 8002d4e <cleanup_glue+0xe>
 8002d4a:	f7ff fff9 	bl	8002d40 <cleanup_glue>
 8002d4e:	4621      	mov	r1, r4
 8002d50:	4628      	mov	r0, r5
 8002d52:	e8bd 4038 	ldmia.w	sp!, {r3, r4, r5, lr}
 8002d56:	f7ff bf17 	b.w	8002b88 <_free_r>
	...

08002d5c <_reclaim_reent>:
 8002d5c:	4b2c      	ldr	r3, [pc, #176]	; (8002e10 <_reclaim_reent+0xb4>)
 8002d5e:	b570      	push	{r4, r5, r6, lr}
 8002d60:	681b      	ldr	r3, [r3, #0]
 8002d62:	4604      	mov	r4, r0
 8002d64:	4283      	cmp	r3, r0
 8002d66:	d051      	beq.n	8002e0c <_reclaim_reent+0xb0>
 8002d68:	6a43      	ldr	r3, [r0, #36]	; 0x24
 8002d6a:	b143      	cbz	r3, 8002d7e <_reclaim_reent+0x22>
 8002d6c:	68db      	ldr	r3, [r3, #12]
 8002d6e:	2b00      	cmp	r3, #0
 8002d70:	d14a      	bne.n	8002e08 <_reclaim_reent+0xac>
 8002d72:	6a63      	ldr	r3, [r4, #36]	; 0x24
 8002d74:	6819      	ldr	r1, [r3, #0]
 8002d76:	b111      	cbz	r1, 8002d7e <_reclaim_reent+0x22>
 8002d78:	4620      	mov	r0, r4
 8002d7a:	f7ff ff05 	bl	8002b88 <_free_r>
 8002d7e:	6961      	ldr	r1, [r4, #20]
 8002d80:	b111      	cbz	r1, 8002d88 <_reclaim_reent+0x2c>
 8002d82:	4620      	mov	r0, r4
 8002d84:	f7ff ff00 	bl	8002b88 <_free_r>
 8002d88:	6a61      	ldr	r1, [r4, #36]	; 0x24
 8002d8a:	b111      	cbz	r1, 8002d92 <_reclaim_reent+0x36>
 8002d8c:	4620      	mov	r0, r4
 8002d8e:	f7ff fefb 	bl	8002b88 <_free_r>
 8002d92:	6ba1      	ldr	r1, [r4, #56]	; 0x38
 8002d94:	b111      	cbz	r1, 8002d9c <_reclaim_reent+0x40>
 8002d96:	4620      	mov	r0, r4
 8002d98:	f7ff fef6 	bl	8002b88 <_free_r>
 8002d9c:	6be1      	ldr	r1, [r4, #60]	; 0x3c
 8002d9e:	b111      	cbz	r1, 8002da6 <_reclaim_reent+0x4a>
 8002da0:	4620      	mov	r0, r4
 8002da2:	f7ff fef1 	bl	8002b88 <_free_r>
 8002da6:	6c21      	ldr	r1, [r4, #64]	; 0x40
 8002da8:	b111      	cbz	r1, 8002db0 <_reclaim_reent+0x54>
 8002daa:	4620      	mov	r0, r4
 8002dac:	f7ff feec 	bl	8002b88 <_free_r>
 8002db0:	6de1      	ldr	r1, [r4, #92]	; 0x5c
 8002db2:	b111      	cbz	r1, 8002dba <_reclaim_reent+0x5e>
 8002db4:	4620      	mov	r0, r4
 8002db6:	f7ff fee7 	bl	8002b88 <_free_r>
 8002dba:	6da1      	ldr	r1, [r4, #88]	; 0x58
 8002dbc:	b111      	cbz	r1, 8002dc4 <_reclaim_reent+0x68>
 8002dbe:	4620      	mov	r0, r4
 8002dc0:	f7ff fee2 	bl	8002b88 <_free_r>
 8002dc4:	6b61      	ldr	r1, [r4, #52]	; 0x34
 8002dc6:	b111      	cbz	r1, 8002dce <_reclaim_reent+0x72>
 8002dc8:	4620      	mov	r0, r4
 8002dca:	f7ff fedd 	bl	8002b88 <_free_r>
 8002dce:	69a3      	ldr	r3, [r4, #24]
 8002dd0:	b1e3      	cbz	r3, 8002e0c <_reclaim_reent+0xb0>
 8002dd2:	4620      	mov	r0, r4
 8002dd4:	6aa3      	ldr	r3, [r4, #40]	; 0x28
 8002dd6:	4798      	blx	r3
 8002dd8:	6ca1      	ldr	r1, [r4, #72]	; 0x48
 8002dda:	b1b9      	cbz	r1, 8002e0c <_reclaim_reent+0xb0>
 8002ddc:	4620      	mov	r0, r4
 8002dde:	e8bd 4070 	ldmia.w	sp!, {r4, r5, r6, lr}
 8002de2:	f7ff bfad 	b.w	8002d40 <cleanup_glue>
 8002de6:	5949      	ldr	r1, [r1, r5]
 8002de8:	b941      	cbnz	r1, 8002dfc <_reclaim_reent+0xa0>
 8002dea:	3504      	adds	r5, #4
 8002dec:	6a63      	ldr	r3, [r4, #36]	; 0x24
 8002dee:	2d80      	cmp	r5, #128	; 0x80
 8002df0:	68d9      	ldr	r1, [r3, #12]
 8002df2:	d1f8      	bne.n	8002de6 <_reclaim_reent+0x8a>
 8002df4:	4620      	mov	r0, r4
 8002df6:	f7ff fec7 	bl	8002b88 <_free_r>
 8002dfa:	e7ba      	b.n	8002d72 <_reclaim_reent+0x16>
 8002dfc:	680e      	ldr	r6, [r1, #0]
 8002dfe:	4620      	mov	r0, r4
 8002e00:	f7ff fec2 	bl	8002b88 <_free_r>
 8002e04:	4631      	mov	r1, r6
 8002e06:	e7ef      	b.n	8002de8 <_reclaim_reent+0x8c>
 8002e08:	2500      	movs	r5, #0
 8002e0a:	e7ef      	b.n	8002dec <_reclaim_reent+0x90>
 8002e0c:	bd70      	pop	{r4, r5, r6, pc}
 8002e0e:	bf00      	nop
 8002e10:	20000010 	.word	0x20000010

08002e14 <_sbrk_r>:
 8002e14:	b538      	push	{r3, r4, r5, lr}
 8002e16:	2300      	movs	r3, #0
 8002e18:	4d05      	ldr	r5, [pc, #20]	; (8002e30 <_sbrk_r+0x1c>)
 8002e1a:	4604      	mov	r4, r0
 8002e1c:	4608      	mov	r0, r1
 8002e1e:	602b      	str	r3, [r5, #0]
 8002e20:	f7fd fafe 	bl	8000420 <_sbrk>
 8002e24:	1c43      	adds	r3, r0, #1
 8002e26:	d102      	bne.n	8002e2e <_sbrk_r+0x1a>
 8002e28:	682b      	ldr	r3, [r5, #0]
 8002e2a:	b103      	cbz	r3, 8002e2e <_sbrk_r+0x1a>
 8002e2c:	6023      	str	r3, [r4, #0]
 8002e2e:	bd38      	pop	{r3, r4, r5, pc}
 8002e30:	20001b40 	.word	0x20001b40

08002e34 <_raise_r>:
 8002e34:	291f      	cmp	r1, #31
 8002e36:	b538      	push	{r3, r4, r5, lr}
 8002e38:	4604      	mov	r4, r0
 8002e3a:	460d      	mov	r5, r1
 8002e3c:	d904      	bls.n	8002e48 <_raise_r+0x14>
 8002e3e:	2316      	movs	r3, #22
 8002e40:	6003      	str	r3, [r0, #0]
 8002e42:	f04f 30ff 	mov.w	r0, #4294967295
 8002e46:	bd38      	pop	{r3, r4, r5, pc}
 8002e48:	6c42      	ldr	r2, [r0, #68]	; 0x44
 8002e4a:	b112      	cbz	r2, 8002e52 <_raise_r+0x1e>
 8002e4c:	f852 3021 	ldr.w	r3, [r2, r1, lsl #2]
 8002e50:	b94b      	cbnz	r3, 8002e66 <_raise_r+0x32>
 8002e52:	4620      	mov	r0, r4
 8002e54:	f000 f830 	bl	8002eb8 <_getpid_r>
 8002e58:	462a      	mov	r2, r5
 8002e5a:	4601      	mov	r1, r0
 8002e5c:	4620      	mov	r0, r4
 8002e5e:	e8bd 4038 	ldmia.w	sp!, {r3, r4, r5, lr}
 8002e62:	f000 b817 	b.w	8002e94 <_kill_r>
 8002e66:	2b01      	cmp	r3, #1
 8002e68:	d00a      	beq.n	8002e80 <_raise_r+0x4c>
 8002e6a:	1c59      	adds	r1, r3, #1
 8002e6c:	d103      	bne.n	8002e76 <_raise_r+0x42>
 8002e6e:	2316      	movs	r3, #22
 8002e70:	6003      	str	r3, [r0, #0]
 8002e72:	2001      	movs	r0, #1
 8002e74:	e7e7      	b.n	8002e46 <_raise_r+0x12>
 8002e76:	2400      	movs	r4, #0
 8002e78:	4628      	mov	r0, r5
 8002e7a:	f842 4025 	str.w	r4, [r2, r5, lsl #2]
 8002e7e:	4798      	blx	r3
 8002e80:	2000      	movs	r0, #0
 8002e82:	e7e0      	b.n	8002e46 <_raise_r+0x12>

08002e84 <raise>:
 8002e84:	4b02      	ldr	r3, [pc, #8]	; (8002e90 <raise+0xc>)
 8002e86:	4601      	mov	r1, r0
 8002e88:	6818      	ldr	r0, [r3, #0]
 8002e8a:	f7ff bfd3 	b.w	8002e34 <_raise_r>
 8002e8e:	bf00      	nop
 8002e90:	20000010 	.word	0x20000010

08002e94 <_kill_r>:
 8002e94:	b538      	push	{r3, r4, r5, lr}
 8002e96:	2300      	movs	r3, #0
 8002e98:	4d06      	ldr	r5, [pc, #24]	; (8002eb4 <_kill_r+0x20>)
 8002e9a:	4604      	mov	r4, r0
 8002e9c:	4608      	mov	r0, r1
 8002e9e:	4611      	mov	r1, r2
 8002ea0:	602b      	str	r3, [r5, #0]
 8002ea2:	f7fd faaf 	bl	8000404 <_kill>
 8002ea6:	1c43      	adds	r3, r0, #1
 8002ea8:	d102      	bne.n	8002eb0 <_kill_r+0x1c>
 8002eaa:	682b      	ldr	r3, [r5, #0]
 8002eac:	b103      	cbz	r3, 8002eb0 <_kill_r+0x1c>
 8002eae:	6023      	str	r3, [r4, #0]
 8002eb0:	bd38      	pop	{r3, r4, r5, pc}
 8002eb2:	bf00      	nop
 8002eb4:	20001b40 	.word	0x20001b40

08002eb8 <_getpid_r>:
 8002eb8:	f7fd baa2 	b.w	8000400 <_getpid>

08002ebc <__malloc_lock>:
 8002ebc:	4801      	ldr	r0, [pc, #4]	; (8002ec4 <__malloc_lock+0x8>)
 8002ebe:	f7ff be43 	b.w	8002b48 <__retarget_lock_acquire_recursive>
 8002ec2:	bf00      	nop
 8002ec4:	20001b34 	.word	0x20001b34

08002ec8 <__malloc_unlock>:
 8002ec8:	4801      	ldr	r0, [pc, #4]	; (8002ed0 <__malloc_unlock+0x8>)
 8002eca:	f7ff be3e 	b.w	8002b4a <__retarget_lock_release_recursive>
 8002ece:	bf00      	nop
 8002ed0:	20001b34 	.word	0x20001b34

08002ed4 <_init>:
 8002ed4:	b5f8      	push	{r3, r4, r5, r6, r7, lr}
 8002ed6:	bf00      	nop
 8002ed8:	bcf8      	pop	{r3, r4, r5, r6, r7}
 8002eda:	bc08      	pop	{r3}
 8002edc:	469e      	mov	lr, r3
 8002ede:	4770      	bx	lr

08002ee0 <_fini>:
 8002ee0:	b5f8      	push	{r3, r4, r5, r6, r7, lr}
 8002ee2:	bf00      	nop
 8002ee4:	bcf8      	pop	{r3, r4, r5, r6, r7}
 8002ee6:	bc08      	pop	{r3}
 8002ee8:	469e      	mov	lr, r3
 8002eea:	4770      	bx	lr
